ARM GAS  C:\Users\laure\AppData\Local\Temp\ccBcDZnM.s 			page 1


   1              		.syntax unified
   2              		.cpu cortex-m3
   3              		.fpu softvfp
   4              		.eabi_attribute 20, 1
   5              		.eabi_attribute 21, 1
   6              		.eabi_attribute 23, 3
   7              		.eabi_attribute 24, 1
   8              		.eabi_attribute 25, 1
   9              		.eabi_attribute 26, 1
  10              		.eabi_attribute 30, 1
  11              		.eabi_attribute 34, 1
  12              		.eabi_attribute 18, 4
  13              		.thumb
  14              		.syntax unified
  15              		.file	"main.c"
  16              		.text
  17              	.Ltext0:
  18              		.cfi_sections	.debug_frame
  19              		.section	.text.Rx_Handler,"ax",%progbits
  20              		.align	2
  21              		.global	Rx_Handler
  22              		.thumb
  23              		.thumb_func
  24              		.type	Rx_Handler, %function
  25              	Rx_Handler:
  26              	.LFB63:
  27              		.file 1 "main.c"
   1:main.c        **** /* ========================================
   2:main.c        ****  *
   3:main.c        ****  * Copyright YOUR COMPANY, THE YEAR
   4:main.c        ****  * All Rights Reserved
   5:main.c        ****  * UNPUBLISHED, LICENSED SOFTWARE.
   6:main.c        ****  *
   7:main.c        ****  * CONFIDENTIAL AND PROPRIETARY INFORMATION
   8:main.c        ****  * WHICH IS THE PROPERTY OF your company.
   9:main.c        ****  *
  10:main.c        ****  * ========================================
  11:main.c        **** */
  12:main.c        **** #include "project.h"
  13:main.c        **** #include "keypad.h"
  14:main.c        **** 
  15:main.c        **** #include "printer.h"
  16:main.c        **** #include "lighter.h"
  17:main.c        **** #include "translator.h"
  18:main.c        **** #include "lightsensor.h"
  19:main.c        **** #include "soundhandler.h"
  20:main.c        **** #include "semaphores.h"
  21:main.c        **** 
  22:main.c        **** #include "morse.h"
  23:main.c        **** 
  24:main.c        **** #include "math.h"
  25:main.c        **** 
  26:main.c        **** #define MAX_MESSAGE_LENGTH 50
  27:main.c        **** char userMessage[MAX_MESSAGE_LENGTH];
  28:main.c        **** 
  29:main.c        **** uint8 rxData;
  30:main.c        **** int aMessageIsReadyToBeSendflag;
ARM GAS  C:\Users\laure\AppData\Local\Temp\ccBcDZnM.s 			page 2


  31:main.c        **** 
  32:main.c        **** CY_ISR ( Rx_Handler ) {
  28              		.loc 1 32 0
  29              		.cfi_startproc
  30              		@ args = 0, pretend = 0, frame = 8
  31              		@ frame_needed = 0, uses_anonymous_args = 0
  32 0000 30B5     		push	{r4, r5, lr}
  33              		.cfi_def_cfa_offset 12
  34              		.cfi_offset 4, -12
  35              		.cfi_offset 5, -8
  36              		.cfi_offset 14, -4
  37 0002 83B0     		sub	sp, sp, #12
  38              		.cfi_def_cfa_offset 24
  39              	.L5:
  33:main.c        ****     uint8_t status = 0;
  34:main.c        ****     do {
  35:main.c        ****         // Checks if no UART Rx errors
  36:main.c        ****         status = UART_ReadRxStatus();
  40              		.loc 1 36 0
  41 0004 FFF7FEFF 		bl	UART_ReadRxStatus
  42              	.LVL0:
  43 0008 0446     		mov	r4, r0
  44              	.LVL1:
  37:main.c        ****         if (( status & UART_RX_STS_PAR_ERROR ) |
  45              		.loc 1 37 0
  46 000a 10F01E0F 		tst	r0, #30
  47 000e 06D0     		beq	.L2
  38:main.c        ****         ( status & UART_RX_STS_STOP_ERROR ) |
  39:main.c        ****         ( status & UART_RX_STS_BREAK ) |
  40:main.c        ****         ( status & UART_RX_STS_OVERRUN ) ) {
  41:main.c        ****             // Parity , framing , break or overrun error
  42:main.c        ****             LCD_Screen_Position(1 ,0);
  48              		.loc 1 42 0
  49 0010 0021     		movs	r1, #0
  50 0012 0120     		movs	r0, #1
  51              	.LVL2:
  52 0014 FFF7FEFF 		bl	LCD_Screen_Position
  53              	.LVL3:
  43:main.c        ****             LCD_Screen_PrintString("UART err");
  54              		.loc 1 43 0
  55 0018 0F48     		ldr	r0, .L7
  56 001a FFF7FEFF 		bl	LCD_Screen_PrintString
  57              	.LVL4:
  58              	.L2:
  59 001e 04F02004 		and	r4, r4, #32
  44:main.c        ****         }
  45:main.c        ****         // Check that rx buffer is not empty and get rx data
  46:main.c        ****         if ( ( status & UART_RX_STS_FIFO_NOTEMPTY ) != 0){
  60              		.loc 1 46 0
  61 0022 04F0FF05 		and	r5, r4, #255
  62 0026 9CB1     		cbz	r4, .L3
  47:main.c        ****             rxData = UART_ReadRxData();
  63              		.loc 1 47 0
  64 0028 FFF7FEFF 		bl	UART_ReadRxData
  65              	.LVL5:
  66 002c 0B4B     		ldr	r3, .L7+4
  67 002e 1870     		strb	r0, [r3]
ARM GAS  C:\Users\laure\AppData\Local\Temp\ccBcDZnM.s 			page 3


  48:main.c        ****             
  49:main.c        ****             if (rxData != '\n') {
  68              		.loc 1 49 0
  69 0030 0A28     		cmp	r0, #10
  70 0032 0AD0     		beq	.L4
  71              	.LBB2:
  50:main.c        ****                 char strToConcat[2] = "\0\0";
  72              		.loc 1 50 0
  73 0034 0A4B     		ldr	r3, .L7+8
  74 0036 1B88     		ldrh	r3, [r3]
  75 0038 ADF80430 		strh	r3, [sp, #4]	@ movhi
  51:main.c        ****                 strToConcat[0] = rxData;
  76              		.loc 1 51 0
  77 003c 02A9     		add	r1, sp, #8
  78 003e 01F8040D 		strb	r0, [r1, #-4]!
  52:main.c        ****                 strcat(userMessage, strToConcat);
  79              		.loc 1 52 0
  80 0042 0848     		ldr	r0, .L7+12
  81 0044 FFF7FEFF 		bl	strcat
  82              	.LVL6:
  83              	.LBE2:
  84 0048 02E0     		b	.L3
  85              	.L4:
  53:main.c        ****             }
  54:main.c        ****             
  55:main.c        ****             else 
  56:main.c        ****                 aMessageIsReadyToBeSendflag = 1;
  86              		.loc 1 56 0
  87 004a 0122     		movs	r2, #1
  88 004c 064B     		ldr	r3, .L7+16
  89 004e 1A60     		str	r2, [r3]
  90              	.L3:
  57:main.c        ****             
  58:main.c        ****         }
  59:main.c        ****     } while (( status & UART_RX_STS_FIFO_NOTEMPTY ) != 0);
  91              		.loc 1 59 0
  92 0050 002D     		cmp	r5, #0
  93 0052 D7D1     		bne	.L5
  60:main.c        **** }
  94              		.loc 1 60 0
  95 0054 03B0     		add	sp, sp, #12
  96              		.cfi_def_cfa_offset 12
  97              		@ sp needed
  98 0056 30BD     		pop	{r4, r5, pc}
  99              	.L8:
 100              		.align	2
 101              	.L7:
 102 0058 00000000 		.word	.LC0
 103 005c 00000000 		.word	rxData
 104 0060 00000000 		.word	.LANCHOR0
 105 0064 00000000 		.word	userMessage
 106 0068 00000000 		.word	aMessageIsReadyToBeSendflag
 107              		.cfi_endproc
 108              	.LFE63:
 109              		.size	Rx_Handler, .-Rx_Handler
 110              		.section	.text.main,"ax",%progbits
 111              		.align	2
ARM GAS  C:\Users\laure\AppData\Local\Temp\ccBcDZnM.s 			page 4


 112              		.global	main
 113              		.thumb
 114              		.thumb_func
 115              		.type	main, %function
 116              	main:
 117              	.LFB64:
  61:main.c        **** 
  62:main.c        **** int main(void)
  63:main.c        **** {
 118              		.loc 1 63 0
 119              		.cfi_startproc
 120              		@ args = 0, pretend = 0, frame = 0
 121              		@ frame_needed = 0, uses_anonymous_args = 0
 122 0000 F8B5     		push	{r3, r4, r5, r6, r7, lr}
 123              		.cfi_def_cfa_offset 24
 124              		.cfi_offset 3, -24
 125              		.cfi_offset 4, -20
 126              		.cfi_offset 5, -16
 127              		.cfi_offset 6, -12
 128              		.cfi_offset 7, -8
 129              		.cfi_offset 14, -4
  64:main.c        ****     CyGlobalIntEnable; /* Enable global interrupts */
 130              		.loc 1 64 0
 131              		.syntax unified
 132              	@ 64 "main.c" 1
 133 0002 62B6     		CPSIE   i
 134              	@ 0 "" 2
  65:main.c        ****     
  66:main.c        ****     LCD_Screen_Start();
 135              		.loc 1 66 0
 136              		.thumb
 137              		.syntax unified
 138 0004 FFF7FEFF 		bl	LCD_Screen_Start
 139              	.LVL7:
  67:main.c        ****     keypadInit();
 140              		.loc 1 67 0
 141 0008 FFF7FEFF 		bl	keypadInit
 142              	.LVL8:
  68:main.c        ****     
  69:main.c        ****     ADC_DelSig_Start();
 143              		.loc 1 69 0
 144 000c FFF7FEFF 		bl	ADC_DelSig_Start
 145              	.LVL9:
  70:main.c        ****     
  71:main.c        ****     Timer_Start();
 146              		.loc 1 71 0
 147 0010 FFF7FEFF 		bl	Timer_Start
 148              	.LVL10:
  72:main.c        ****     
  73:main.c        ****     initVector();
 149              		.loc 1 73 0
 150 0014 FFF7FEFF 		bl	initVector
 151              	.LVL11:
  74:main.c        ****     
  75:main.c        ****     VDAC_Start();
 152              		.loc 1 75 0
 153 0018 FFF7FEFF 		bl	VDAC_Start
ARM GAS  C:\Users\laure\AppData\Local\Temp\ccBcDZnM.s 			page 5


 154              	.LVL12:
  76:main.c        ****     
  77:main.c        ****     char keyPressed;
  78:main.c        ****     char lastKeyPressed;
  79:main.c        ****     
  80:main.c        ****     int j =  0;
  81:main.c        ****     
  82:main.c        ****     PWM_1_Start();
 155              		.loc 1 82 0
 156 001c FFF7FEFF 		bl	PWM_1_Start
 157              	.LVL13:
  83:main.c        ****     PWM_2_Start();
 158              		.loc 1 83 0
 159 0020 FFF7FEFF 		bl	PWM_2_Start
 160              	.LVL14:
  84:main.c        ****     
  85:main.c        ****     int selectedServo = 1;
  86:main.c        ****     
  87:main.c        ****     UART_Start();
 161              		.loc 1 87 0
 162 0024 FFF7FEFF 		bl	UART_Start
 163              	.LVL15:
  88:main.c        ****     Rx_Int_StartEx( Rx_Handler );
 164              		.loc 1 88 0
 165 0028 3248     		ldr	r0, .L29
 166 002a FFF7FEFF 		bl	Rx_Int_StartEx
 167              	.LVL16:
  85:main.c        ****     
 168              		.loc 1 85 0
 169 002e 0127     		movs	r7, #1
  80:main.c        ****     
 170              		.loc 1 80 0
 171 0030 0025     		movs	r5, #0
 172              	.LVL17:
 173              	.L10:
  89:main.c        ****     
  90:main.c        ****     for(;;)
  91:main.c        ****     {   
  92:main.c        ****         if (Pin_SW1_Read()) {
 174              		.loc 1 92 0
 175 0032 FFF7FEFF 		bl	Pin_SW1_Read
 176              	.LVL18:
 177 0036 98B1     		cbz	r0, .L11
  93:main.c        ****             
  94:main.c        ****             toggleAllLights(); // turn on the lights
 178              		.loc 1 94 0
 179 0038 FFF7FEFF 		bl	toggleAllLights
 180              	.LVL19:
  95:main.c        ****             
  96:main.c        ****             while ( Pin_SW1_Read() ) {
 181              		.loc 1 96 0
 182 003c 09E0     		b	.L13
 183              	.L15:
 184              	.LBB3:
  97:main.c        ****                     int overFlow = getTC();
 185              		.loc 1 97 0
 186 003e FFF7FEFF 		bl	getTC
ARM GAS  C:\Users\laure\AppData\Local\Temp\ccBcDZnM.s 			page 6


 187              	.LVL20:
  98:main.c        ****                     if (overFlow) {
 188              		.loc 1 98 0
 189 0042 30B1     		cbz	r0, .L13
  99:main.c        ****                         setVDACvalue (j);
 190              		.loc 1 99 0
 191 0044 2846     		mov	r0, r5
 192              	.LVL21:
 193 0046 FFF7FEFF 		bl	setVDACvalue
 194              	.LVL22:
 100:main.c        ****                         if (++j > 99)
 195              		.loc 1 100 0
 196 004a 0135     		adds	r5, r5, #1
 197              	.LVL23:
 198 004c 632D     		cmp	r5, #99
 199 004e 00DD     		ble	.L13
 101:main.c        ****                             j = 0;
 200              		.loc 1 101 0
 201 0050 0025     		movs	r5, #0
 202              	.LVL24:
 203              	.L13:
 204              	.LBE3:
  96:main.c        ****                     int overFlow = getTC();
 205              		.loc 1 96 0
 206 0052 FFF7FEFF 		bl	Pin_SW1_Read
 207              	.LVL25:
 208 0056 0028     		cmp	r0, #0
 209 0058 F1D1     		bne	.L15
 102:main.c        ****                     }
 103:main.c        ****             }
 104:main.c        ****             
 105:main.c        ****             toggleAllLights(); // turn off the lights
 210              		.loc 1 105 0
 211 005a FFF7FEFF 		bl	toggleAllLights
 212              	.LVL26:
 213 005e 1DE0     		b	.L16
 214              	.L11:
 106:main.c        ****         }
 107:main.c        ****             
 108:main.c        ****         else if (Pin_SW2_Read())
 215              		.loc 1 108 0
 216 0060 FFF7FEFF 		bl	Pin_SW2_Read
 217              	.LVL27:
 218 0064 10B1     		cbz	r0, .L17
 109:main.c        ****             emitShortSignalWithBlinking();
 219              		.loc 1 109 0
 220 0066 FFF7FEFF 		bl	emitShortSignalWithBlinking
 221              	.LVL28:
 222 006a 17E0     		b	.L16
 223              	.L17:
 110:main.c        ****             
 111:main.c        ****         else if (Pin_SW3_Read())
 224              		.loc 1 111 0
 225 006c FFF7FEFF 		bl	Pin_SW3_Read
 226              	.LVL29:
 227 0070 10B1     		cbz	r0, .L18
 112:main.c        ****             emitLongSignalWithBlinking();
ARM GAS  C:\Users\laure\AppData\Local\Temp\ccBcDZnM.s 			page 7


 228              		.loc 1 112 0
 229 0072 FFF7FEFF 		bl	emitLongSignalWithBlinking
 230              	.LVL30:
 231 0076 11E0     		b	.L16
 232              	.L18:
 113:main.c        ****         
 114:main.c        ****         else if (Pin_SW4_Read())
 233              		.loc 1 114 0
 234 0078 FFF7FEFF 		bl	Pin_SW4_Read
 235              	.LVL31:
 236 007c 70B1     		cbz	r0, .L16
 115:main.c        ****         {
 116:main.c        ****             if (selectedServo == 1)
 237              		.loc 1 116 0
 238 007e 012F     		cmp	r7, #1
 239 0080 02D0     		beq	.L26
 117:main.c        ****                 selectedServo = 2;
 118:main.c        ****             else if (selectedServo == 2)
 240              		.loc 1 118 0
 241 0082 022F     		cmp	r7, #2
 242 0084 03D1     		bne	.L19
 243 0086 01E0     		b	.L27
 244              	.L26:
 117:main.c        ****                 selectedServo = 2;
 245              		.loc 1 117 0
 246 0088 0227     		movs	r7, #2
 247              	.LVL32:
 248 008a 00E0     		b	.L19
 249              	.LVL33:
 250              	.L27:
 119:main.c        ****                 selectedServo = 1;
 251              		.loc 1 119 0
 252 008c 0127     		movs	r7, #1
 253              	.LVL34:
 254              	.L19:
 120:main.c        ****             updateSemaphorePosition(selectedServo);
 255              		.loc 1 120 0
 256 008e 3846     		mov	r0, r7
 257 0090 FFF7FEFF 		bl	updateSemaphorePosition
 258              	.LVL35:
 121:main.c        ****             CyDelay(500); // it prevents accidentally pressing
 259              		.loc 1 121 0
 260 0094 4FF4FA70 		mov	r0, #500
 261 0098 FFF7FEFF 		bl	CyDelay
 262              	.LVL36:
 263              	.L16:
 122:main.c        ****                           // the button several times in a row
 123:main.c        ****         }
 124:main.c        ****         
 125:main.c        ****         updateSemaphorePosition(selectedServo);
 264              		.loc 1 125 0
 265 009c 3846     		mov	r0, r7
 266 009e FFF7FEFF 		bl	updateSemaphorePosition
 267              	.LVL37:
 126:main.c        ****         
 127:main.c        ****         keyPressed = keypadScan();
 268              		.loc 1 127 0
ARM GAS  C:\Users\laure\AppData\Local\Temp\ccBcDZnM.s 			page 8


 269 00a2 FFF7FEFF 		bl	keypadScan
 270              	.LVL38:
 271 00a6 0446     		mov	r4, r0
 272              	.LVL39:
 128:main.c        ****         if (keyPressed != 'z' && keyPressed != '*') { // first user input on the keyboard
 273              		.loc 1 128 0
 274 00a8 7A28     		cmp	r0, #122
 275 00aa 16D0     		beq	.L20
 276              		.loc 1 128 0 is_stmt 0 discriminator 1
 277 00ac 2A28     		cmp	r0, #42
 278 00ae 14D0     		beq	.L20
 279              	.LVL40:
 280              	.LBB4:
 129:main.c        ****                                                       // must be different than the '*'            
 130:main.c        ****             lastKeyPressed = keyPressed;
 131:main.c        ****             printChar(lastKeyPressed);
 281              		.loc 1 131 0 is_stmt 1
 282 00b0 FFF7FEFF 		bl	printChar
 283              	.LVL41:
 130:main.c        ****             printChar(lastKeyPressed);
 284              		.loc 1 130 0
 285 00b4 2646     		mov	r6, r4
 132:main.c        ****             
 133:main.c        ****             while (keyPressed != '*') {
 286              		.loc 1 133 0
 287 00b6 09E0     		b	.L21
 288              	.LVL42:
 289              	.L23:
 134:main.c        ****                 keyPressed = keypadScan();
 290              		.loc 1 134 0
 291 00b8 FFF7FEFF 		bl	keypadScan
 292              	.LVL43:
 293 00bc 0446     		mov	r4, r0
 294              	.LVL44:
 135:main.c        ****                 
 136:main.c        ****                 if (keyPressed != 'z' && keyPressed !='*') {
 295              		.loc 1 136 0
 296 00be 7A28     		cmp	r0, #122
 297 00c0 04D0     		beq	.L21
 298              		.loc 1 136 0 is_stmt 0 discriminator 1
 299 00c2 2A28     		cmp	r0, #42
 300 00c4 02D0     		beq	.L21
 301              	.LVL45:
 137:main.c        ****                     lastKeyPressed = keyPressed;
 138:main.c        ****                     printChar(lastKeyPressed);
 302              		.loc 1 138 0 is_stmt 1
 303 00c6 FFF7FEFF 		bl	printChar
 304              	.LVL46:
 137:main.c        ****                     lastKeyPressed = keyPressed;
 305              		.loc 1 137 0
 306 00ca 2646     		mov	r6, r4
 307              	.L21:
 308              	.LVL47:
 133:main.c        ****                 keyPressed = keypadScan();
 309              		.loc 1 133 0
 310 00cc 2A2C     		cmp	r4, #42
 311 00ce F3D1     		bne	.L23
ARM GAS  C:\Users\laure\AppData\Local\Temp\ccBcDZnM.s 			page 9


 139:main.c        ****                 }
 140:main.c        ****             }
 141:main.c        ****             
 142:main.c        ****             
 143:main.c        ****             
 144:main.c        ****             char* prerecordedMessage = getPrerecordedMessage(lastKeyPressed);
 312              		.loc 1 144 0
 313 00d0 3046     		mov	r0, r6
 314 00d2 FFF7FEFF 		bl	getPrerecordedMessage
 315              	.LVL48:
 145:main.c        ****             
 146:main.c        ****             sendMessage(prerecordedMessage);
 316              		.loc 1 146 0
 317 00d6 FFF7FEFF 		bl	sendMessage
 318              	.LVL49:
 319              	.L20:
 320              	.LBE4:
 147:main.c        ****         }
 148:main.c        ****         
 149:main.c        ****                 
 150:main.c        ****         if ( aMessageIsReadyToBeSendflag ) // the strings are differents
 321              		.loc 1 150 0
 322 00da 074B     		ldr	r3, .L29+4
 323 00dc 1B68     		ldr	r3, [r3]
 324 00de 002B     		cmp	r3, #0
 325 00e0 A7D0     		beq	.L10
 151:main.c        ****         { 
 152:main.c        ****             
 153:main.c        ****             sendMessage(userMessage);
 326              		.loc 1 153 0
 327 00e2 064C     		ldr	r4, .L29+8
 328 00e4 2046     		mov	r0, r4
 329 00e6 FFF7FEFF 		bl	sendMessage
 330              	.LVL50:
 154:main.c        ****             
 155:main.c        ****             strcpy(userMessage, ""); // userMessage is reset
 331              		.loc 1 155 0
 332 00ea 0023     		movs	r3, #0
 333 00ec 2370     		strb	r3, [r4]
 156:main.c        ****             aMessageIsReadyToBeSendflag = 0;
 334              		.loc 1 156 0
 335 00ee 024A     		ldr	r2, .L29+4
 336 00f0 1360     		str	r3, [r2]
 337 00f2 9EE7     		b	.L10
 338              	.L30:
 339              		.align	2
 340              	.L29:
 341 00f4 00000000 		.word	Rx_Handler
 342 00f8 00000000 		.word	aMessageIsReadyToBeSendflag
 343 00fc 00000000 		.word	userMessage
 344              		.cfi_endproc
 345              	.LFE64:
 346              		.size	main, .-main
 347              		.comm	aMessageIsReadyToBeSendflag,4,4
 348              		.comm	rxData,1,1
 349              		.comm	userMessage,50,4
 350              		.section	.rodata
ARM GAS  C:\Users\laure\AppData\Local\Temp\ccBcDZnM.s 			page 10


 351              		.align	2
 352              		.set	.LANCHOR0,. + 0
 353              	.LC1:
 354 0000 000000   		.ascii	"\000\000\000"
 355              		.section	.rodata.str1.4,"aMS",%progbits,1
 356              		.align	2
 357              	.LC0:
 358 0000 55415254 		.ascii	"UART err\000"
 358      20657272 
 358      00
 359              		.text
 360              	.Letext0:
 361              		.file 2 "c:\\program files (x86)\\cypress\\psoc creator\\4.3\\psoc creator\\import\\gnu\\arm\\5.4.
 362              		.file 3 "c:\\program files (x86)\\cypress\\psoc creator\\4.3\\psoc creator\\import\\gnu\\arm\\5.4.
 363              		.file 4 "Generated_Source\\PSoC5/cytypes.h"
 364              		.file 5 "Generated_Source\\PSoC5/core_cm3.h"
 365              		.file 6 "c:\\program files (x86)\\cypress\\psoc creator\\4.3\\psoc creator\\import\\gnu\\arm\\5.4.
 366              		.file 7 "Generated_Source\\PSoC5/UART.h"
 367              		.file 8 "Generated_Source\\PSoC5/LCD_Screen.h"
 368              		.file 9 "soundhandler.h"
 369              		.file 10 "printer.h"
 370              		.file 11 "keypad.h"
 371              		.file 12 "morse.h"
 372              		.file 13 "Generated_Source\\PSoC5/ADC_DelSig.h"
 373              		.file 14 "Generated_Source\\PSoC5/Timer.h"
 374              		.file 15 "Generated_Source\\PSoC5/VDAC.h"
 375              		.file 16 "Generated_Source\\PSoC5/PWM_1.h"
 376              		.file 17 "Generated_Source\\PSoC5/PWM_2.h"
 377              		.file 18 "Generated_Source\\PSoC5/Rx_Int.h"
 378              		.file 19 "Generated_Source\\PSoC5/Pin_SW1.h"
 379              		.file 20 "lighter.h"
 380              		.file 21 "Generated_Source\\PSoC5/Pin_SW2.h"
 381              		.file 22 "Generated_Source\\PSoC5/Pin_SW3.h"
 382              		.file 23 "Generated_Source\\PSoC5/Pin_SW4.h"
 383              		.file 24 "semaphores.h"
 384              		.file 25 "Generated_Source\\PSoC5/CyLib.h"