ARM GAS  C:\Users\laure\AppData\Local\Temp\cctASKJ3.s 			page 1


   1              		.syntax unified
   2              		.cpu cortex-m3
   3              		.fpu softvfp
   4              		.eabi_attribute 20, 1
   5              		.eabi_attribute 21, 1
   6              		.eabi_attribute 23, 3
   7              		.eabi_attribute 24, 1
   8              		.eabi_attribute 25, 1
   9              		.eabi_attribute 26, 1
  10              		.eabi_attribute 30, 1
  11              		.eabi_attribute 34, 1
  12              		.eabi_attribute 18, 4
  13              		.thumb
  14              		.syntax unified
  15              		.file	"morse.c"
  16              		.text
  17              	.Ltext0:
  18              		.cfi_sections	.debug_frame
  19              		.section	.text.emitSoundSignal,"ax",%progbits
  20              		.align	2
  21              		.global	emitSoundSignal
  22              		.thumb
  23              		.thumb_func
  24              		.type	emitSoundSignal, %function
  25              	emitSoundSignal:
  26              	.LFB63:
  27              		.file 1 "morse.c"
   1:morse.c       **** /* ========================================
   2:morse.c       ****  *
   3:morse.c       ****  * Copyright YOUR COMPANY, THE YEAR
   4:morse.c       ****  * All Rights Reserved
   5:morse.c       ****  * UNPUBLISHED, LICENSED SOFTWARE.
   6:morse.c       ****  *
   7:morse.c       ****  * CONFIDENTIAL AND PROPRIETARY INFORMATION
   8:morse.c       ****  * WHICH IS THE PROPERTY OF your company.
   9:morse.c       ****  *
  10:morse.c       ****  * ========================================
  11:morse.c       **** */
  12:morse.c       **** 
  13:morse.c       **** #include "project.h"
  14:morse.c       **** #include "morse.h"
  15:morse.c       **** 
  16:morse.c       **** #include "lighter.h"
  17:morse.c       **** #include "printer.h"
  18:morse.c       **** #include "soundhandler.h"
  19:morse.c       **** #include "lightsensor.h"
  20:morse.c       **** #include "translator.h"
  21:morse.c       **** #include "semaphores.h"
  22:morse.c       **** 
  23:morse.c       **** #define MAX_MESSAGE_LENGTH 50
  24:morse.c       **** 
  25:morse.c       **** #define TI_DELAY 250
  26:morse.c       **** #define TAAH_DELAY 750
  27:morse.c       **** 
  28:morse.c       **** /* play a sound for as long as the duration
  29:morse.c       ****    value passed in parameter */
  30:morse.c       **** void emitSoundSignal (int duration) {
ARM GAS  C:\Users\laure\AppData\Local\Temp\cctASKJ3.s 			page 2


  28              		.loc 1 30 0
  29              		.cfi_startproc
  30              		@ args = 0, pretend = 0, frame = 0
  31              		@ frame_needed = 0, uses_anonymous_args = 0
  32              	.LVL0:
  33 0000 70B5     		push	{r4, r5, r6, lr}
  34              		.cfi_def_cfa_offset 16
  35              		.cfi_offset 4, -16
  36              		.cfi_offset 5, -12
  37              		.cfi_offset 6, -8
  38              		.cfi_offset 14, -4
  39 0002 0546     		mov	r5, r0
  40              	.LVL1:
  31:morse.c       ****     int j = 0;
  32:morse.c       ****     int timeElapsed = 0;
  41              		.loc 1 32 0
  42 0004 0024     		movs	r4, #0
  31:morse.c       ****     int j = 0;
  43              		.loc 1 31 0
  44 0006 2646     		mov	r6, r4
  33:morse.c       ****     
  34:morse.c       ****     while (timeElapsed < duration * 1000) {
  45              		.loc 1 34 0
  46 0008 0AE0     		b	.L3
  47              	.LVL2:
  48              	.L5:
  49              	.LBB2:
  35:morse.c       ****         int overFlow = getTC();
  50              		.loc 1 35 0
  51 000a FFF7FEFF 		bl	getTC
  52              	.LVL3:
  36:morse.c       ****         if (overFlow) {
  53              		.loc 1 36 0
  54 000e 38B1     		cbz	r0, .L3
  37:morse.c       ****             setVDACvalue (j);
  55              		.loc 1 37 0
  56 0010 3046     		mov	r0, r6
  57              	.LVL4:
  58 0012 FFF7FEFF 		bl	setVDACvalue
  59              	.LVL5:
  38:morse.c       ****             if (++j > 99)
  60              		.loc 1 38 0
  61 0016 0136     		adds	r6, r6, #1
  62              	.LVL6:
  63 0018 632E     		cmp	r6, #99
  64 001a 00DD     		ble	.L4
  39:morse.c       ****                 j = 0;
  65              		.loc 1 39 0
  66 001c 0026     		movs	r6, #0
  67              	.LVL7:
  68              	.L4:
  40:morse.c       ****             timeElapsed += 50;
  69              		.loc 1 40 0
  70 001e 3234     		adds	r4, r4, #50
  71              	.LVL8:
  72              	.L3:
  73              	.LBE2:
ARM GAS  C:\Users\laure\AppData\Local\Temp\cctASKJ3.s 			page 3


  34:morse.c       ****         int overFlow = getTC();
  74              		.loc 1 34 0
  75 0020 4FF47A73 		mov	r3, #1000
  76 0024 03FB05F3 		mul	r3, r3, r5
  77 0028 9C42     		cmp	r4, r3
  78 002a EEDB     		blt	.L5
  41:morse.c       ****         }
  42:morse.c       ****     } 
  43:morse.c       **** }
  79              		.loc 1 43 0
  80 002c 70BD     		pop	{r4, r5, r6, pc}
  81              		.cfi_endproc
  82              	.LFE63:
  83              		.size	emitSoundSignal, .-emitSoundSignal
  84 002e 00BF     		.section	.text.emitShortSoundSignal,"ax",%progbits
  85              		.align	2
  86              		.global	emitShortSoundSignal
  87              		.thumb
  88              		.thumb_func
  89              		.type	emitShortSoundSignal, %function
  90              	emitShortSoundSignal:
  91              	.LFB64:
  44:morse.c       **** 
  45:morse.c       **** /* play a sound for as long as a ti signal */
  46:morse.c       **** void emitShortSoundSignal (void) {
  92              		.loc 1 46 0
  93              		.cfi_startproc
  94              		@ args = 0, pretend = 0, frame = 0
  95              		@ frame_needed = 0, uses_anonymous_args = 0
  96 0000 08B5     		push	{r3, lr}
  97              		.cfi_def_cfa_offset 8
  98              		.cfi_offset 3, -8
  99              		.cfi_offset 14, -4
  47:morse.c       ****     emitSoundSignal(TI_DELAY);
 100              		.loc 1 47 0
 101 0002 FA20     		movs	r0, #250
 102 0004 FFF7FEFF 		bl	emitSoundSignal
 103              	.LVL9:
 104 0008 08BD     		pop	{r3, pc}
 105              		.cfi_endproc
 106              	.LFE64:
 107              		.size	emitShortSoundSignal, .-emitShortSoundSignal
 108 000a 00BF     		.section	.text.emitLongSoundSignal,"ax",%progbits
 109              		.align	2
 110              		.global	emitLongSoundSignal
 111              		.thumb
 112              		.thumb_func
 113              		.type	emitLongSoundSignal, %function
 114              	emitLongSoundSignal:
 115              	.LFB65:
  48:morse.c       **** }
  49:morse.c       **** 
  50:morse.c       **** /* play a sound for as long as a taah signal */
  51:morse.c       **** void emitLongSoundSignal (void) {
 116              		.loc 1 51 0
 117              		.cfi_startproc
 118              		@ args = 0, pretend = 0, frame = 0
ARM GAS  C:\Users\laure\AppData\Local\Temp\cctASKJ3.s 			page 4


 119              		@ frame_needed = 0, uses_anonymous_args = 0
 120 0000 08B5     		push	{r3, lr}
 121              		.cfi_def_cfa_offset 8
 122              		.cfi_offset 3, -8
 123              		.cfi_offset 14, -4
  52:morse.c       ****     emitSoundSignal(TAAH_DELAY);
 124              		.loc 1 52 0
 125 0002 40F2EE20 		movw	r0, #750
 126 0006 FFF7FEFF 		bl	emitSoundSignal
 127              	.LVL10:
 128 000a 08BD     		pop	{r3, pc}
 129              		.cfi_endproc
 130              	.LFE65:
 131              		.size	emitLongSoundSignal, .-emitLongSoundSignal
 132              		.section	.text.emitShortSignalWithBlinking,"ax",%progbits
 133              		.align	2
 134              		.global	emitShortSignalWithBlinking
 135              		.thumb
 136              		.thumb_func
 137              		.type	emitShortSignalWithBlinking, %function
 138              	emitShortSignalWithBlinking:
 139              	.LFB66:
  53:morse.c       **** }
  54:morse.c       **** 
  55:morse.c       **** /* emit a short morse signal using the LEDs */
  56:morse.c       **** void emitShortSignalWithBlinking (void) {
 140              		.loc 1 56 0
 141              		.cfi_startproc
 142              		@ args = 0, pretend = 0, frame = 0
 143              		@ frame_needed = 0, uses_anonymous_args = 0
 144 0000 08B5     		push	{r3, lr}
 145              		.cfi_def_cfa_offset 8
 146              		.cfi_offset 3, -8
 147              		.cfi_offset 14, -4
  57:morse.c       ****     
  58:morse.c       ****     toggleAllLights(); // turn on the lights
 148              		.loc 1 58 0
 149 0002 FFF7FEFF 		bl	toggleAllLights
 150              	.LVL11:
  59:morse.c       ****     emitShortSoundSignal();
 151              		.loc 1 59 0
 152 0006 FFF7FEFF 		bl	emitShortSoundSignal
 153              	.LVL12:
  60:morse.c       ****     toggleAllLights(); // turn off the lights
 154              		.loc 1 60 0
 155 000a FFF7FEFF 		bl	toggleAllLights
 156              	.LVL13:
 157 000e 08BD     		pop	{r3, pc}
 158              		.cfi_endproc
 159              	.LFE66:
 160              		.size	emitShortSignalWithBlinking, .-emitShortSignalWithBlinking
 161              		.section	.text.emitLongSignalWithBlinking,"ax",%progbits
 162              		.align	2
 163              		.global	emitLongSignalWithBlinking
 164              		.thumb
 165              		.thumb_func
 166              		.type	emitLongSignalWithBlinking, %function
ARM GAS  C:\Users\laure\AppData\Local\Temp\cctASKJ3.s 			page 5


 167              	emitLongSignalWithBlinking:
 168              	.LFB67:
  61:morse.c       **** }
  62:morse.c       **** 
  63:morse.c       **** /* emit a long morse signal using the LEDs */
  64:morse.c       **** void emitLongSignalWithBlinking (void) {
 169              		.loc 1 64 0
 170              		.cfi_startproc
 171              		@ args = 0, pretend = 0, frame = 0
 172              		@ frame_needed = 0, uses_anonymous_args = 0
 173 0000 08B5     		push	{r3, lr}
 174              		.cfi_def_cfa_offset 8
 175              		.cfi_offset 3, -8
 176              		.cfi_offset 14, -4
  65:morse.c       ****     
  66:morse.c       ****     toggleAllLights(); // turn on the lights
 177              		.loc 1 66 0
 178 0002 FFF7FEFF 		bl	toggleAllLights
 179              	.LVL14:
  67:morse.c       ****     emitLongSoundSignal();
 180              		.loc 1 67 0
 181 0006 FFF7FEFF 		bl	emitLongSoundSignal
 182              	.LVL15:
  68:morse.c       ****     toggleAllLights(); // turn off the lights
 183              		.loc 1 68 0
 184 000a FFF7FEFF 		bl	toggleAllLights
 185              	.LVL16:
 186 000e 08BD     		pop	{r3, pc}
 187              		.cfi_endproc
 188              	.LFE67:
 189              		.size	emitLongSignalWithBlinking, .-emitLongSignalWithBlinking
 190              		.section	.text.emitMorseMessage,"ax",%progbits
 191              		.align	2
 192              		.global	emitMorseMessage
 193              		.thumb
 194              		.thumb_func
 195              		.type	emitMorseMessage, %function
 196              	emitMorseMessage:
 197              	.LFB69:
  69:morse.c       **** }
  70:morse.c       **** 
  71:morse.c       **** void sendMessage(char message[]) {
  72:morse.c       ****     int night = isNight();
  73:morse.c       ****     
  74:morse.c       ****     const int MSG_LENGTH = strlen(message);
  75:morse.c       ****             
  76:morse.c       ****     char morseMessage[MSG_LENGTH * 7]; // 7 is the max length of the
  77:morse.c       ****                                        // morse equivalent of any character
  78:morse.c       ****             
  79:morse.c       ****     strcpy(morseMessage, msgToMorse(message)); // morseMessage := msgToMorse(userMessage)
  80:morse.c       ****             
  81:morse.c       ****     adequatePrint(message);
  82:morse.c       ****     emitMorseMessage(morseMessage, night);
  83:morse.c       ****     if (! night) displayMessageAsSemaphoreMorseCode(morseMessage);
  84:morse.c       **** 
  85:morse.c       ****     
  86:morse.c       **** }
ARM GAS  C:\Users\laure\AppData\Local\Temp\cctASKJ3.s 			page 6


  87:morse.c       **** 
  88:morse.c       **** /* emit the morse message passed in parameter with sound 
  89:morse.c       ****    if the parameter is set to 1, LEDs are also used */
  90:morse.c       **** void emitMorseMessage(char param[], int night) {
 198              		.loc 1 90 0
 199              		.cfi_startproc
 200              		@ args = 0, pretend = 0, frame = 16
 201              		@ frame_needed = 0, uses_anonymous_args = 0
 202              	.LVL17:
 203 0000 2DE9F041 		push	{r4, r5, r6, r7, r8, lr}
 204              		.cfi_def_cfa_offset 24
 205              		.cfi_offset 4, -24
 206              		.cfi_offset 5, -20
 207              		.cfi_offset 6, -16
 208              		.cfi_offset 7, -12
 209              		.cfi_offset 8, -8
 210              		.cfi_offset 14, -4
 211 0004 84B0     		sub	sp, sp, #16
 212              		.cfi_def_cfa_offset 40
 213 0006 0546     		mov	r5, r0
 214 0008 0F46     		mov	r7, r1
  91:morse.c       ****     LCD_Screen_ClearDisplay();
 215              		.loc 1 91 0
 216 000a 0120     		movs	r0, #1
 217              	.LVL18:
 218 000c FFF7FEFF 		bl	LCD_Screen_WriteControl
 219              	.LVL19:
  92:morse.c       ****     
  93:morse.c       ****     const int LENGTH = strlen(param);
 220              		.loc 1 93 0
 221 0010 2846     		mov	r0, r5
 222 0012 FFF7FEFF 		bl	strlen
 223              	.LVL20:
 224 0016 0646     		mov	r6, r0
 225              	.LVL21:
  94:morse.c       ****     
  95:morse.c       ****     char firstRow[8] = "        ";
 226              		.loc 1 95 0
 227 0018 414B     		ldr	r3, .L30
 228 001a 0DF10808 		add	r8, sp, #8
 229 001e 93E80300 		ldmia	r3, {r0, r1}
 230              	.LVL22:
 231 0022 88E80300 		stmia	r8, {r0, r1}
  96:morse.c       ****     char secondRow[8] = "        ";
 232              		.loc 1 96 0
 233 0026 8DE80300 		stmia	sp, {r0, r1}
  97:morse.c       ****     
  98:morse.c       ****     /* displays a blank screen for one second */
  99:morse.c       ****     LCD_Screen_Position(0,0);
 234              		.loc 1 99 0
 235 002a 0021     		movs	r1, #0
 236 002c 0846     		mov	r0, r1
 237 002e FFF7FEFF 		bl	LCD_Screen_Position
 238              	.LVL23:
 100:morse.c       ****     LCD_Screen_PrintString(firstRow);
 239              		.loc 1 100 0
 240 0032 4046     		mov	r0, r8
ARM GAS  C:\Users\laure\AppData\Local\Temp\cctASKJ3.s 			page 7


 241 0034 FFF7FEFF 		bl	LCD_Screen_PrintString
 242              	.LVL24:
 101:morse.c       ****     LCD_Screen_Position(1,0);
 243              		.loc 1 101 0
 244 0038 0021     		movs	r1, #0
 245 003a 0120     		movs	r0, #1
 246 003c FFF7FEFF 		bl	LCD_Screen_Position
 247              	.LVL25:
 102:morse.c       ****     LCD_Screen_PrintString(secondRow);
 248              		.loc 1 102 0
 249 0040 6846     		mov	r0, sp
 250 0042 FFF7FEFF 		bl	LCD_Screen_PrintString
 251              	.LVL26:
 103:morse.c       ****     CyDelay(250);
 252              		.loc 1 103 0
 253 0046 FA20     		movs	r0, #250
 254 0048 FFF7FEFF 		bl	CyDelay
 255              	.LVL27:
 256              	.LBB3:
 104:morse.c       ****     
 105:morse.c       ****     for (int j = 0; j < LENGTH; j++)
 257              		.loc 1 105 0
 258 004c 0024     		movs	r4, #0
 259 004e 57E0     		b	.L17
 260              	.LVL28:
 261              	.L18:
 262              	.LBB4:
 106:morse.c       ****     {
 107:morse.c       ****         /* updates the variables to print */
 108:morse.c       ****         for (int i = 0; i < 7; i++) {
 109:morse.c       ****             firstRow[i] = firstRow[i+1];
 263              		.loc 1 109 0 discriminator 3
 264 0050 5A1C     		adds	r2, r3, #1
 265 0052 04A9     		add	r1, sp, #16
 266 0054 1144     		add	r1, r1, r2
 267 0056 11F8081C 		ldrb	r1, [r1, #-8]	@ zero_extendqisi2
 268 005a 04A8     		add	r0, sp, #16
 269 005c 0344     		add	r3, r3, r0
 270              	.LVL29:
 271 005e 03F8081C 		strb	r1, [r3, #-8]
 272              	.LVL30:
 108:morse.c       ****             firstRow[i] = firstRow[i+1];
 273              		.loc 1 108 0 discriminator 3
 274 0062 1346     		mov	r3, r2
 275 0064 00E0     		b	.L27
 276              	.LVL31:
 277              	.L28:
 278              	.LBE4:
 279 0066 0023     		movs	r3, #0
 280              	.L27:
 281              	.LVL32:
 282              	.LBB5:
 108:morse.c       ****             firstRow[i] = firstRow[i+1];
 283              		.loc 1 108 0 is_stmt 0 discriminator 1
 284 0068 062B     		cmp	r3, #6
 285 006a F1DD     		ble	.L18
 286              	.LBE5:
ARM GAS  C:\Users\laure\AppData\Local\Temp\cctASKJ3.s 			page 8


 110:morse.c       ****         }
 111:morse.c       ****         firstRow[7] = secondRow[0];
 287              		.loc 1 111 0 is_stmt 1
 288 006c 9DF80030 		ldrb	r3, [sp]	@ zero_extendqisi2
 289              	.LVL33:
 290 0070 8DF80F30 		strb	r3, [sp, #15]
 291              	.LVL34:
 292              	.LBB6:
 112:morse.c       ****         for (int i = 0; i < 7; i++) {
 293              		.loc 1 112 0
 294 0074 0023     		movs	r3, #0
 295 0076 09E0     		b	.L19
 296              	.LVL35:
 297              	.L20:
 113:morse.c       ****             secondRow[i] = secondRow[i+1];    
 298              		.loc 1 113 0 discriminator 3
 299 0078 5A1C     		adds	r2, r3, #1
 300 007a 04A9     		add	r1, sp, #16
 301 007c 1144     		add	r1, r1, r2
 302 007e 11F8101C 		ldrb	r1, [r1, #-16]	@ zero_extendqisi2
 303 0082 04A8     		add	r0, sp, #16
 304 0084 0344     		add	r3, r3, r0
 305              	.LVL36:
 306 0086 03F8101C 		strb	r1, [r3, #-16]
 307              	.LVL37:
 112:morse.c       ****         for (int i = 0; i < 7; i++) {
 308              		.loc 1 112 0 discriminator 3
 309 008a 1346     		mov	r3, r2
 310              	.LVL38:
 311              	.L19:
 112:morse.c       ****         for (int i = 0; i < 7; i++) {
 312              		.loc 1 112 0 is_stmt 0 discriminator 1
 313 008c 062B     		cmp	r3, #6
 314 008e F3DD     		ble	.L20
 315              	.LBE6:
 114:morse.c       ****         }
 115:morse.c       ****         
 116:morse.c       ****         secondRow[7] = param[j];
 316              		.loc 1 116 0 is_stmt 1
 317 0090 2B5D     		ldrb	r3, [r5, r4]	@ zero_extendqisi2
 318              	.LVL39:
 319 0092 8DF80730 		strb	r3, [sp, #7]
 117:morse.c       ****         
 118:morse.c       ****         /* displays the value of the variables */
 119:morse.c       ****         LCD_Screen_Position(0,0);
 320              		.loc 1 119 0
 321 0096 0021     		movs	r1, #0
 322 0098 0846     		mov	r0, r1
 323 009a FFF7FEFF 		bl	LCD_Screen_Position
 324              	.LVL40:
 120:morse.c       ****         LCD_Screen_PrintString(firstRow);
 325              		.loc 1 120 0
 326 009e 02A8     		add	r0, sp, #8
 327 00a0 FFF7FEFF 		bl	LCD_Screen_PrintString
 328              	.LVL41:
 121:morse.c       ****         LCD_Screen_Position(1,0);
 329              		.loc 1 121 0
ARM GAS  C:\Users\laure\AppData\Local\Temp\cctASKJ3.s 			page 9


 330 00a4 0021     		movs	r1, #0
 331 00a6 0120     		movs	r0, #1
 332 00a8 FFF7FEFF 		bl	LCD_Screen_Position
 333              	.LVL42:
 122:morse.c       ****         LCD_Screen_PrintString(secondRow);
 334              		.loc 1 122 0
 335 00ac 6846     		mov	r0, sp
 336 00ae FFF7FEFF 		bl	LCD_Screen_PrintString
 337              	.LVL43:
 123:morse.c       ****         
 124:morse.c       ****         UART_PutChar(param[j]);
 338              		.loc 1 124 0
 339 00b2 285D     		ldrb	r0, [r5, r4]	@ zero_extendqisi2
 340 00b4 FFF7FEFF 		bl	UART_PutChar
 341              	.LVL44:
 125:morse.c       ****          
 126:morse.c       ****         if (secondRow[7] == '.') {
 342              		.loc 1 126 0
 343 00b8 9DF80730 		ldrb	r3, [sp, #7]	@ zero_extendqisi2
 344 00bc 2E2B     		cmp	r3, #46
 345 00be 06D1     		bne	.L21
 127:morse.c       ****             if (night)
 346              		.loc 1 127 0
 347 00c0 17B1     		cbz	r7, .L22
 128:morse.c       ****                 emitShortSignalWithBlinking();
 348              		.loc 1 128 0
 349 00c2 FFF7FEFF 		bl	emitShortSignalWithBlinking
 350              	.LVL45:
 351 00c6 17E0     		b	.L23
 352              	.L22:
 129:morse.c       ****             else
 130:morse.c       ****                 emitShortSoundSignal();
 353              		.loc 1 130 0
 354 00c8 FFF7FEFF 		bl	emitShortSoundSignal
 355              	.LVL46:
 356 00cc 14E0     		b	.L23
 357              	.L21:
 131:morse.c       ****         }
 132:morse.c       ****         
 133:morse.c       ****         else if (secondRow[7] == '-') {
 358              		.loc 1 133 0
 359 00ce 2D2B     		cmp	r3, #45
 360 00d0 06D1     		bne	.L24
 134:morse.c       ****             if (night)
 361              		.loc 1 134 0
 362 00d2 17B1     		cbz	r7, .L25
 135:morse.c       ****                 emitLongSignalWithBlinking();
 363              		.loc 1 135 0
 364 00d4 FFF7FEFF 		bl	emitLongSignalWithBlinking
 365              	.LVL47:
 366 00d8 0EE0     		b	.L23
 367              	.L25:
 136:morse.c       ****             else
 137:morse.c       ****                 emitLongSoundSignal();
 368              		.loc 1 137 0
 369 00da FFF7FEFF 		bl	emitLongSoundSignal
 370              	.LVL48:
ARM GAS  C:\Users\laure\AppData\Local\Temp\cctASKJ3.s 			page 10


 371 00de 0BE0     		b	.L23
 372              	.L24:
 138:morse.c       ****         }
 139:morse.c       ****         
 140:morse.c       ****         else if (secondRow[7] == ' ')
 373              		.loc 1 140 0
 374 00e0 202B     		cmp	r3, #32
 375 00e2 04D1     		bne	.L26
 141:morse.c       ****             CyDelay(TAAH_DELAY);
 376              		.loc 1 141 0
 377 00e4 40F2EE20 		movw	r0, #750
 378 00e8 FFF7FEFF 		bl	CyDelay
 379              	.LVL49:
 380 00ec 04E0     		b	.L23
 381              	.L26:
 142:morse.c       ****         else if (secondRow[7] == '/')
 382              		.loc 1 142 0
 383 00ee 2F2B     		cmp	r3, #47
 384 00f0 02D1     		bne	.L23
 143:morse.c       ****             CyDelay(TI_DELAY);
 385              		.loc 1 143 0
 386 00f2 FA20     		movs	r0, #250
 387 00f4 FFF7FEFF 		bl	CyDelay
 388              	.LVL50:
 389              	.L23:
 144:morse.c       ****         
 145:morse.c       ****         CyDelay(TI_DELAY);
 390              		.loc 1 145 0 discriminator 2
 391 00f8 FA20     		movs	r0, #250
 392 00fa FFF7FEFF 		bl	CyDelay
 393              	.LVL51:
 105:morse.c       ****     {
 394              		.loc 1 105 0 discriminator 2
 395 00fe 0134     		adds	r4, r4, #1
 396              	.LVL52:
 397              	.L17:
 105:morse.c       ****     {
 398              		.loc 1 105 0 is_stmt 0 discriminator 1
 399 0100 B442     		cmp	r4, r6
 400 0102 B0DB     		blt	.L28
 401              	.LBE3:
 146:morse.c       ****     }
 147:morse.c       ****     
 148:morse.c       ****     CyDelay(500);
 402              		.loc 1 148 0 is_stmt 1
 403 0104 4FF4FA70 		mov	r0, #500
 404 0108 FFF7FEFF 		bl	CyDelay
 405              	.LVL53:
 149:morse.c       ****     LCD_Screen_ClearDisplay();
 406              		.loc 1 149 0
 407 010c 0120     		movs	r0, #1
 408 010e FFF7FEFF 		bl	LCD_Screen_WriteControl
 409              	.LVL54:
 150:morse.c       ****     UART_PutChar(0x0A); // line feed
 410              		.loc 1 150 0
 411 0112 0A20     		movs	r0, #10
 412 0114 FFF7FEFF 		bl	UART_PutChar
ARM GAS  C:\Users\laure\AppData\Local\Temp\cctASKJ3.s 			page 11


 413              	.LVL55:
 151:morse.c       **** }
 414              		.loc 1 151 0
 415 0118 04B0     		add	sp, sp, #16
 416              		.cfi_def_cfa_offset 24
 417              		@ sp needed
 418 011a BDE8F081 		pop	{r4, r5, r6, r7, r8, pc}
 419              	.LVL56:
 420              	.L31:
 421 011e 00BF     		.align	2
 422              	.L30:
 423 0120 00000000 		.word	.LANCHOR0
 424              		.cfi_endproc
 425              	.LFE69:
 426              		.size	emitMorseMessage, .-emitMorseMessage
 427              		.section	.text.sendMessage,"ax",%progbits
 428              		.align	2
 429              		.global	sendMessage
 430              		.thumb
 431              		.thumb_func
 432              		.type	sendMessage, %function
 433              	sendMessage:
 434              	.LFB68:
  71:morse.c       ****     int night = isNight();
 435              		.loc 1 71 0
 436              		.cfi_startproc
 437              		@ args = 0, pretend = 0, frame = 0
 438              		@ frame_needed = 1, uses_anonymous_args = 0
 439              	.LVL57:
 440 0000 F8B5     		push	{r3, r4, r5, r6, r7, lr}
 441              		.cfi_def_cfa_offset 24
 442              		.cfi_offset 3, -24
 443              		.cfi_offset 4, -20
 444              		.cfi_offset 5, -16
 445              		.cfi_offset 6, -12
 446              		.cfi_offset 7, -8
 447              		.cfi_offset 14, -4
 448 0002 00AF     		add	r7, sp, #0
 449              		.cfi_def_cfa_register 7
 450 0004 0446     		mov	r4, r0
  72:morse.c       ****     
 451              		.loc 1 72 0
 452 0006 FFF7FEFF 		bl	isNight
 453              	.LVL58:
 454 000a 0546     		mov	r5, r0
 455              	.LVL59:
  74:morse.c       ****             
 456              		.loc 1 74 0
 457 000c 2046     		mov	r0, r4
 458              	.LVL60:
 459 000e FFF7FEFF 		bl	strlen
 460              	.LVL61:
  76:morse.c       ****                                        // morse equivalent of any character
 461              		.loc 1 76 0
 462 0012 C0EBC000 		rsb	r0, r0, r0, lsl #3
 463              	.LVL62:
 464 0016 0730     		adds	r0, r0, #7
ARM GAS  C:\Users\laure\AppData\Local\Temp\cctASKJ3.s 			page 12


 465              	.LVL63:
 466 0018 20F00700 		bic	r0, r0, #7
 467              	.LVL64:
 468 001c ADEB000D 		sub	sp, sp, r0
 469              	.LVL65:
  79:morse.c       ****             
 470              		.loc 1 79 0
 471 0020 2046     		mov	r0, r4
 472 0022 FFF7FEFF 		bl	msgToMorse
 473              	.LVL66:
 474 0026 0146     		mov	r1, r0
 475 0028 6846     		mov	r0, sp
 476 002a FFF7FEFF 		bl	strcpy
 477              	.LVL67:
  81:morse.c       ****     emitMorseMessage(morseMessage, night);
 478              		.loc 1 81 0
 479 002e 2046     		mov	r0, r4
 480 0030 FFF7FEFF 		bl	adequatePrint
 481              	.LVL68:
  82:morse.c       ****     if (! night) displayMessageAsSemaphoreMorseCode(morseMessage);
 482              		.loc 1 82 0
 483 0034 2946     		mov	r1, r5
 484 0036 6846     		mov	r0, sp
 485 0038 FFF7FEFF 		bl	emitMorseMessage
 486              	.LVL69:
  83:morse.c       **** 
 487              		.loc 1 83 0
 488 003c 15B9     		cbnz	r5, .L32
  83:morse.c       **** 
 489              		.loc 1 83 0 is_stmt 0 discriminator 1
 490 003e 6846     		mov	r0, sp
 491 0040 FFF7FEFF 		bl	displayMessageAsSemaphoreMorseCode
 492              	.LVL70:
 493              	.L32:
  86:morse.c       **** 
 494              		.loc 1 86 0 is_stmt 1
 495 0044 BD46     		mov	sp, r7
 496              		.cfi_def_cfa_register 13
 497              	.LVL71:
 498              		@ sp needed
 499 0046 F8BD     		pop	{r3, r4, r5, r6, r7, pc}
 500              		.cfi_endproc
 501              	.LFE68:
 502              		.size	sendMessage, .-sendMessage
 503              		.section	.text.getPrerecordedMessage,"ax",%progbits
 504              		.align	2
 505              		.global	getPrerecordedMessage
 506              		.thumb
 507              		.thumb_func
 508              		.type	getPrerecordedMessage, %function
 509              	getPrerecordedMessage:
 510              	.LFB70:
 152:morse.c       **** 
 153:morse.c       **** /* return the prerecorded message associated
 154:morse.c       ****    with the character passed in parameter */
 155:morse.c       **** char* getPrerecordedMessage (char c) {
 511              		.loc 1 155 0
ARM GAS  C:\Users\laure\AppData\Local\Temp\cctASKJ3.s 			page 13


 512              		.cfi_startproc
 513              		@ args = 0, pretend = 0, frame = 0
 514              		@ frame_needed = 0, uses_anonymous_args = 0
 515              		@ link register save eliminated.
 516              	.LVL72:
 156:morse.c       ****  
 157:morse.c       ****     char* prerecordedMessage = "";
 158:morse.c       ****     
 159:morse.c       ****     switch (c)
 517              		.loc 1 159 0
 518 0000 2338     		subs	r0, r0, #35
 519              	.LVL73:
 520 0002 1628     		cmp	r0, #22
 521 0004 0DD8     		bhi	.L36
 522 0006 DFE800F0 		tbb	[pc, r0]
 523              	.L38:
 524 000a 20       		.byte	(.L37-.L38)/2
 525 000b 0C       		.byte	(.L36-.L38)/2
 526 000c 0C       		.byte	(.L36-.L38)/2
 527 000d 0C       		.byte	(.L36-.L38)/2
 528 000e 0C       		.byte	(.L36-.L38)/2
 529 000f 0C       		.byte	(.L36-.L38)/2
 530 0010 0C       		.byte	(.L36-.L38)/2
 531 0011 0C       		.byte	(.L36-.L38)/2
 532 0012 0C       		.byte	(.L36-.L38)/2
 533 0013 0C       		.byte	(.L36-.L38)/2
 534 0014 0C       		.byte	(.L36-.L38)/2
 535 0015 0C       		.byte	(.L36-.L38)/2
 536 0016 0C       		.byte	(.L36-.L38)/2
 537 0017 1E       		.byte	(.L39-.L38)/2
 538 0018 22       		.byte	(.L49-.L38)/2
 539 0019 0E       		.byte	(.L41-.L38)/2
 540 001a 10       		.byte	(.L42-.L38)/2
 541 001b 12       		.byte	(.L43-.L38)/2
 542 001c 14       		.byte	(.L44-.L38)/2
 543 001d 16       		.byte	(.L45-.L38)/2
 544 001e 18       		.byte	(.L46-.L38)/2
 545 001f 1A       		.byte	(.L47-.L38)/2
 546 0020 1C       		.byte	(.L48-.L38)/2
 547 0021 00       		.p2align 1
 548              	.L36:
 157:morse.c       ****     
 549              		.loc 1 157 0
 550 0022 0C48     		ldr	r0, .L50
 551 0024 7047     		bx	lr
 552              	.L41:
 553              	.LVL74:
 160:morse.c       ****     {
 161:morse.c       ****         case '1':
 162:morse.c       ****             prerecordedMessage = "SOS";
 163:morse.c       ****             break;
 164:morse.c       ****         case '2':
 165:morse.c       ****             prerecordedMessage = "BEAMS";
 554              		.loc 1 165 0
 555 0026 0C48     		ldr	r0, .L50+4
 166:morse.c       ****             break;
 556              		.loc 1 166 0
ARM GAS  C:\Users\laure\AppData\Local\Temp\cctASKJ3.s 			page 14


 557 0028 7047     		bx	lr
 558              	.LVL75:
 559              	.L42:
 167:morse.c       ****         case '3':
 168:morse.c       ****             prerecordedMessage = "Coucou :-)";
 560              		.loc 1 168 0
 561 002a 0C48     		ldr	r0, .L50+8
 169:morse.c       ****             break;
 562              		.loc 1 169 0
 563 002c 7047     		bx	lr
 564              	.LVL76:
 565              	.L43:
 170:morse.c       ****         case '4':
 171:morse.c       ****             prerecordedMessage = "Au revoir !";
 566              		.loc 1 171 0
 567 002e 0C48     		ldr	r0, .L50+12
 172:morse.c       ****             break;
 568              		.loc 1 172 0
 569 0030 7047     		bx	lr
 570              	.LVL77:
 571              	.L44:
 173:morse.c       ****         case '5':
 174:morse.c       ****             prerecordedMessage = "+-+ UrLab +-+";
 572              		.loc 1 174 0
 573 0032 0C48     		ldr	r0, .L50+16
 175:morse.c       ****             break;
 574              		.loc 1 175 0
 575 0034 7047     		bx	lr
 576              	.LVL78:
 577              	.L45:
 176:morse.c       ****         case '6':
 177:morse.c       ****             prerecordedMessage = "Scientia vincere tenebras";
 578              		.loc 1 177 0
 579 0036 0C48     		ldr	r0, .L50+20
 178:morse.c       ****             break;
 580              		.loc 1 178 0
 581 0038 7047     		bx	lr
 582              	.LVL79:
 583              	.L46:
 179:morse.c       ****         case '7':
 180:morse.c       ****             prerecordedMessage = "O Belgique...";
 584              		.loc 1 180 0
 585 003a 0C48     		ldr	r0, .L50+24
 181:morse.c       ****             break;
 586              		.loc 1 181 0
 587 003c 7047     		bx	lr
 588              	.LVL80:
 589              	.L47:
 182:morse.c       ****         case '8':
 183:morse.c       ****             prerecordedMessage = "Allo ?";
 590              		.loc 1 183 0
 591 003e 0C48     		ldr	r0, .L50+28
 184:morse.c       ****             break;
 592              		.loc 1 184 0
 593 0040 7047     		bx	lr
 594              	.LVL81:
 595              	.L48:
ARM GAS  C:\Users\laure\AppData\Local\Temp\cctASKJ3.s 			page 15


 185:morse.c       ****         case '9':
 186:morse.c       ****             prerecordedMessage = "CI ! CI ! CI ! S*x & chopes !";
 596              		.loc 1 186 0
 597 0042 0C48     		ldr	r0, .L50+32
 187:morse.c       ****             break;
 598              		.loc 1 187 0
 599 0044 7047     		bx	lr
 600              	.LVL82:
 601              	.L39:
 188:morse.c       ****         case '0':
 189:morse.c       ****             prerecordedMessage = "One Two Three Viva l'Algerie !"; // choix de Robin #DZ
 602              		.loc 1 189 0
 603 0046 0C48     		ldr	r0, .L50+36
 190:morse.c       ****             break;
 604              		.loc 1 190 0
 605 0048 7047     		bx	lr
 606              	.LVL83:
 607              	.L37:
 191:morse.c       ****         case '#':
 192:morse.c       ****             prerecordedMessage = "Hello World !";
 608              		.loc 1 192 0
 609 004a 0C48     		ldr	r0, .L50+40
 193:morse.c       ****             break;
 610              		.loc 1 193 0
 611 004c 7047     		bx	lr
 612              	.LVL84:
 613              	.L49:
 162:morse.c       ****             break;
 614              		.loc 1 162 0
 615 004e 0C48     		ldr	r0, .L50+44
 616              	.LVL85:
 194:morse.c       ****     }
 195:morse.c       ****     
 196:morse.c       ****     return prerecordedMessage;
 197:morse.c       **** }
 617              		.loc 1 197 0
 618 0050 7047     		bx	lr
 619              	.L51:
 620 0052 00BF     		.align	2
 621              	.L50:
 622 0054 00000000 		.word	.LC1
 623 0058 08000000 		.word	.LC3
 624 005c 10000000 		.word	.LC4
 625 0060 1C000000 		.word	.LC5
 626 0064 28000000 		.word	.LC6
 627 0068 38000000 		.word	.LC7
 628 006c 54000000 		.word	.LC8
 629 0070 64000000 		.word	.LC9
 630 0074 6C000000 		.word	.LC10
 631 0078 8C000000 		.word	.LC11
 632 007c AC000000 		.word	.LC12
 633 0080 04000000 		.word	.LC2
 634              		.cfi_endproc
 635              	.LFE70:
 636              		.size	getPrerecordedMessage, .-getPrerecordedMessage
 637              		.section	.rodata
 638              		.align	2
ARM GAS  C:\Users\laure\AppData\Local\Temp\cctASKJ3.s 			page 16


 639              		.set	.LANCHOR0,. + 0
 640              	.LC0:
 641 0000 20202020 		.ascii	"        \000"
 641      20202020 
 641      00
 642              		.section	.rodata.str1.4,"aMS",%progbits,1
 643              		.align	2
 644              	.LC1:
 645 0000 00       		.ascii	"\000"
 646 0001 000000   		.space	3
 647              	.LC2:
 648 0004 534F5300 		.ascii	"SOS\000"
 649              	.LC3:
 650 0008 4245414D 		.ascii	"BEAMS\000"
 650      5300
 651 000e 0000     		.space	2
 652              	.LC4:
 653 0010 436F7563 		.ascii	"Coucou :-)\000"
 653      6F75203A 
 653      2D2900
 654 001b 00       		.space	1
 655              	.LC5:
 656 001c 41752072 		.ascii	"Au revoir !\000"
 656      65766F69 
 656      72202100 
 657              	.LC6:
 658 0028 2B2D2B20 		.ascii	"+-+ UrLab +-+\000"
 658      55724C61 
 658      62202B2D 
 658      2B00
 659 0036 0000     		.space	2
 660              	.LC7:
 661 0038 53636965 		.ascii	"Scientia vincere tenebras\000"
 661      6E746961 
 661      2076696E 
 661      63657265 
 661      2074656E 
 662 0052 0000     		.space	2
 663              	.LC8:
 664 0054 4F204265 		.ascii	"O Belgique...\000"
 664      6C676971 
 664      75652E2E 
 664      2E00
 665 0062 0000     		.space	2
 666              	.LC9:
 667 0064 416C6C6F 		.ascii	"Allo ?\000"
 667      203F00
 668 006b 00       		.space	1
 669              	.LC10:
 670 006c 43492021 		.ascii	"CI ! CI ! CI ! S*x & chopes !\000"
 670      20434920 
 670      21204349 
 670      20212053 
 670      2A782026 
 671 008a 0000     		.space	2
 672              	.LC11:
 673 008c 4F6E6520 		.ascii	"One Two Three Viva l'Algerie !\000"
ARM GAS  C:\Users\laure\AppData\Local\Temp\cctASKJ3.s 			page 17


 673      54776F20 
 673      54687265 
 673      65205669 
 673      7661206C 
 674 00ab 00       		.space	1
 675              	.LC12:
 676 00ac 48656C6C 		.ascii	"Hello World !\000"
 676      6F20576F 
 676      726C6420 
 676      2100
 677              		.text
 678              	.Letext0:
 679              		.file 2 "c:\\program files (x86)\\cypress\\psoc creator\\4.3\\psoc creator\\import\\gnu\\arm\\5.4.
 680              		.file 3 "c:\\program files (x86)\\cypress\\psoc creator\\4.3\\psoc creator\\import\\gnu\\arm\\5.4.
 681              		.file 4 "soundhandler.h"
 682              		.file 5 "lighter.h"
 683              		.file 6 "Generated_Source\\PSoC5/LCD_Screen.h"
 684              		.file 7 "Generated_Source\\PSoC5/UART.h"
 685              		.file 8 "Generated_Source\\PSoC5/CyLib.h"
 686              		.file 9 "c:\\program files (x86)\\cypress\\psoc creator\\4.3\\psoc creator\\import\\gnu\\arm\\5.4.
 687              		.file 10 "lightsensor.h"
 688              		.file 11 "translator.h"
 689              		.file 12 "printer.h"
 690              		.file 13 "semaphores.h"
 691              		.file 14 "Generated_Source\\PSoC5/core_cm3.h"