ARM GAS  C:\Users\laure\AppData\Local\Temp\ccDSBqcD.s 			page 1


   1              		.syntax unified
   2              		.cpu cortex-m3
   3              		.fpu softvfp
   4              		.eabi_attribute 20, 1
   5              		.eabi_attribute 21, 1
   6              		.eabi_attribute 23, 3
   7              		.eabi_attribute 24, 1
   8              		.eabi_attribute 25, 1
   9              		.eabi_attribute 26, 1
  10              		.eabi_attribute 30, 1
  11              		.eabi_attribute 34, 1
  12              		.eabi_attribute 18, 4
  13              		.thumb
  14              		.syntax unified
  15              		.file	"semaphores.c"
  16              		.text
  17              	.Ltext0:
  18              		.cfi_sections	.debug_frame
  19              		.section	.text.updateSemaphorePosition,"ax",%progbits
  20              		.align	2
  21              		.global	updateSemaphorePosition
  22              		.thumb
  23              		.thumb_func
  24              		.type	updateSemaphorePosition, %function
  25              	updateSemaphorePosition:
  26              	.LFB63:
  27              		.file 1 "semaphores.c"
   1:semaphores.c  **** /* ========================================
   2:semaphores.c  ****  *
   3:semaphores.c  ****  * Copyright YOUR COMPANY, THE YEAR
   4:semaphores.c  ****  * All Rights Reserved
   5:semaphores.c  ****  * UNPUBLISHED, LICENSED SOFTWARE.
   6:semaphores.c  ****  *
   7:semaphores.c  ****  * CONFIDENTIAL AND PROPRIETARY INFORMATION
   8:semaphores.c  ****  * WHICH IS THE PROPERTY OF your company.
   9:semaphores.c  ****  *
  10:semaphores.c  ****  * ========================================
  11:semaphores.c  **** */
  12:semaphores.c  **** 
  13:semaphores.c  **** #include "project.h"
  14:semaphores.c  **** #include "semaphores.h"
  15:semaphores.c  **** 
  16:semaphores.c  **** #define RIGHT 500
  17:semaphores.c  **** #define LEFT 2500
  18:semaphores.c  **** #define MIDDLE 1500
  19:semaphores.c  **** 
  20:semaphores.c  **** #define LONGPAUSE 1500
  21:semaphores.c  **** #define SHORTPAUSE 500
  22:semaphores.c  **** 
  23:semaphores.c  **** /* update the selected servo position passed in
  24:semaphores.c  ****    parameter according to the potentiometer value*/
  25:semaphores.c  **** void updateSemaphorePosition (int selectedServo) {
  28              		.loc 1 25 0
  29              		.cfi_startproc
  30              		@ args = 0, pretend = 0, frame = 0
  31              		@ frame_needed = 0, uses_anonymous_args = 0
  32              	.LVL0:
ARM GAS  C:\Users\laure\AppData\Local\Temp\ccDSBqcD.s 			page 2


  33 0000 10B5     		push	{r4, lr}
  34              		.cfi_def_cfa_offset 8
  35              		.cfi_offset 4, -8
  36              		.cfi_offset 14, -4
  37 0002 0446     		mov	r4, r0
  26:semaphores.c  ****     
  27:semaphores.c  ****     AMux_FastSelect(0); // Potentiometer selected
  38              		.loc 1 27 0
  39 0004 0020     		movs	r0, #0
  40              	.LVL1:
  41 0006 FFF7FEFF 		bl	AMux_FastSelect
  42              	.LVL2:
  28:semaphores.c  ****     
  29:semaphores.c  ****     ADC_DelSig_StartConvert();
  43              		.loc 1 29 0
  44 000a FFF7FEFF 		bl	ADC_DelSig_StartConvert
  45              	.LVL3:
  30:semaphores.c  ****     
  31:semaphores.c  ****     int result;    
  32:semaphores.c  ****     if ( ADC_DelSig_IsEndConversion( ADC_DelSig_WAIT_FOR_RESULT ) )
  46              		.loc 1 32 0
  47 000e 0020     		movs	r0, #0
  48 0010 FFF7FEFF 		bl	ADC_DelSig_IsEndConversion
  49              	.LVL4:
  50 0014 90B1     		cbz	r0, .L1
  33:semaphores.c  ****     {
  34:semaphores.c  ****         result = ADC_DelSig_GetResult32(); // result in more or less [0, 0xFFFF]
  51              		.loc 1 34 0
  52 0016 FFF7FEFF 		bl	ADC_DelSig_GetResult32
  53              	.LVL5:
  35:semaphores.c  ****         result = (result / 32) + RIGHT - 39; // result in [500; 2500]
  54              		.loc 1 35 0
  55 001a 0028     		cmp	r0, #0
  56 001c 00DA     		bge	.L3
  57 001e 1F30     		adds	r0, r0, #31
  58              	.L3:
  59 0020 4011     		asrs	r0, r0, #5
  60 0022 00F2CD10 		addw	r0, r0, #461
  61              	.LVL6:
  36:semaphores.c  ****         
  37:semaphores.c  ****         if (selectedServo == 1)
  62              		.loc 1 37 0
  63 0026 012C     		cmp	r4, #1
  64 0028 03D1     		bne	.L4
  38:semaphores.c  ****             PWM_1_WriteCompare(result);
  65              		.loc 1 38 0
  66 002a 80B2     		uxth	r0, r0
  67              	.LVL7:
  68 002c FFF7FEFF 		bl	PWM_1_WriteCompare
  69              	.LVL8:
  70 0030 10BD     		pop	{r4, pc}
  71              	.LVL9:
  72              	.L4:
  39:semaphores.c  ****         else if (selectedServo == 2)
  73              		.loc 1 39 0
  74 0032 022C     		cmp	r4, #2
  75 0034 02D1     		bne	.L1
ARM GAS  C:\Users\laure\AppData\Local\Temp\ccDSBqcD.s 			page 3


  40:semaphores.c  ****             PWM_2_WriteCompare(result);
  76              		.loc 1 40 0
  77 0036 80B2     		uxth	r0, r0
  78              	.LVL10:
  79 0038 FFF7FEFF 		bl	PWM_2_WriteCompare
  80              	.LVL11:
  81              	.L1:
  82 003c 10BD     		pop	{r4, pc}
  83              		.cfi_endproc
  84              	.LFE63:
  85              		.size	updateSemaphorePosition, .-updateSemaphorePosition
  86 003e 00BF     		.section	.text.verticalFlags,"ax",%progbits
  87              		.align	2
  88              		.global	verticalFlags
  89              		.thumb
  90              		.thumb_func
  91              		.type	verticalFlags, %function
  92              	verticalFlags:
  93              	.LFB64:
  41:semaphores.c  ****     }
  42:semaphores.c  **** }
  43:semaphores.c  **** 
  44:semaphores.c  **** /* put the flags up */
  45:semaphores.c  **** void verticalFlags (void) {
  94              		.loc 1 45 0
  95              		.cfi_startproc
  96              		@ args = 0, pretend = 0, frame = 0
  97              		@ frame_needed = 0, uses_anonymous_args = 0
  98 0000 08B5     		push	{r3, lr}
  99              		.cfi_def_cfa_offset 8
 100              		.cfi_offset 3, -8
 101              		.cfi_offset 14, -4
  46:semaphores.c  ****     PWM_1_WriteCompare(RIGHT);
 102              		.loc 1 46 0
 103 0002 4FF4FA70 		mov	r0, #500
 104 0006 FFF7FEFF 		bl	PWM_1_WriteCompare
 105              	.LVL12:
  47:semaphores.c  ****     PWM_2_WriteCompare(LEFT);
 106              		.loc 1 47 0
 107 000a 40F6C410 		movw	r0, #2500
 108 000e FFF7FEFF 		bl	PWM_2_WriteCompare
 109              	.LVL13:
 110 0012 08BD     		pop	{r3, pc}
 111              		.cfi_endproc
 112              	.LFE64:
 113              		.size	verticalFlags, .-verticalFlags
 114              		.section	.text.horizontalFlags,"ax",%progbits
 115              		.align	2
 116              		.global	horizontalFlags
 117              		.thumb
 118              		.thumb_func
 119              		.type	horizontalFlags, %function
 120              	horizontalFlags:
 121              	.LFB65:
  48:semaphores.c  **** }
  49:semaphores.c  **** 
  50:semaphores.c  **** /* put the flags horizontally */
ARM GAS  C:\Users\laure\AppData\Local\Temp\ccDSBqcD.s 			page 4


  51:semaphores.c  **** void horizontalFlags (void) {
 122              		.loc 1 51 0
 123              		.cfi_startproc
 124              		@ args = 0, pretend = 0, frame = 0
 125              		@ frame_needed = 0, uses_anonymous_args = 0
 126 0000 08B5     		push	{r3, lr}
 127              		.cfi_def_cfa_offset 8
 128              		.cfi_offset 3, -8
 129              		.cfi_offset 14, -4
  52:semaphores.c  ****     PWM_1_WriteCompare(MIDDLE);
 130              		.loc 1 52 0
 131 0002 40F2DC50 		movw	r0, #1500
 132 0006 FFF7FEFF 		bl	PWM_1_WriteCompare
 133              	.LVL14:
  53:semaphores.c  ****     PWM_2_WriteCompare(MIDDLE);
 134              		.loc 1 53 0
 135 000a 40F2DC50 		movw	r0, #1500
 136 000e FFF7FEFF 		bl	PWM_2_WriteCompare
 137              	.LVL15:
 138 0012 08BD     		pop	{r3, pc}
 139              		.cfi_endproc
 140              	.LFE65:
 141              		.size	horizontalFlags, .-horizontalFlags
 142              		.section	.text.flagsDown,"ax",%progbits
 143              		.align	2
 144              		.global	flagsDown
 145              		.thumb
 146              		.thumb_func
 147              		.type	flagsDown, %function
 148              	flagsDown:
 149              	.LFB66:
  54:semaphores.c  **** }
  55:semaphores.c  **** 
  56:semaphores.c  **** /* put the flags down */
  57:semaphores.c  **** void flagsDown (void) {
 150              		.loc 1 57 0
 151              		.cfi_startproc
 152              		@ args = 0, pretend = 0, frame = 0
 153              		@ frame_needed = 0, uses_anonymous_args = 0
 154 0000 08B5     		push	{r3, lr}
 155              		.cfi_def_cfa_offset 8
 156              		.cfi_offset 3, -8
 157              		.cfi_offset 14, -4
  58:semaphores.c  ****     PWM_1_WriteCompare(LEFT);
 158              		.loc 1 58 0
 159 0002 40F6C410 		movw	r0, #2500
 160 0006 FFF7FEFF 		bl	PWM_1_WriteCompare
 161              	.LVL16:
  59:semaphores.c  ****     PWM_2_WriteCompare(RIGHT);
 162              		.loc 1 59 0
 163 000a 4FF4FA70 		mov	r0, #500
 164 000e FFF7FEFF 		bl	PWM_2_WriteCompare
 165              	.LVL17:
 166 0012 08BD     		pop	{r3, pc}
 167              		.cfi_endproc
 168              	.LFE66:
 169              		.size	flagsDown, .-flagsDown
ARM GAS  C:\Users\laure\AppData\Local\Temp\ccDSBqcD.s 			page 5


 170              		.section	.text.displayAttentionSemaphoreMessage,"ax",%progbits
 171              		.align	2
 172              		.global	displayAttentionSemaphoreMessage
 173              		.thumb
 174              		.thumb_func
 175              		.type	displayAttentionSemaphoreMessage, %function
 176              	displayAttentionSemaphoreMessage:
 177              	.LFB67:
  60:semaphores.c  **** }
  61:semaphores.c  **** 
  62:semaphores.c  **** /* wave flags to get attention according to the signaling code */
  63:semaphores.c  **** void displayAttentionSemaphoreMessage (void) {
 178              		.loc 1 63 0
 179              		.cfi_startproc
 180              		@ args = 0, pretend = 0, frame = 0
 181              		@ frame_needed = 0, uses_anonymous_args = 0
 182 0000 10B5     		push	{r4, lr}
 183              		.cfi_def_cfa_offset 8
 184              		.cfi_offset 4, -8
 185              		.cfi_offset 14, -4
  64:semaphores.c  ****     
  65:semaphores.c  ****     PWM_1_WriteCompare( (LEFT + MIDDLE) / 2 );
 186              		.loc 1 65 0
 187 0002 4FF4FA60 		mov	r0, #2000
 188 0006 FFF7FEFF 		bl	PWM_1_WriteCompare
 189              	.LVL18:
  66:semaphores.c  ****     PWM_2_WriteCompare( (RIGHT + MIDDLE) / 2 );
 190              		.loc 1 66 0
 191 000a 4FF47A70 		mov	r0, #1000
 192 000e FFF7FEFF 		bl	PWM_2_WriteCompare
 193              	.LVL19:
  67:semaphores.c  ****     CyDelay(SHORTPAUSE);
 194              		.loc 1 67 0
 195 0012 4FF4FA70 		mov	r0, #500
 196 0016 FFF7FEFF 		bl	CyDelay
 197              	.LVL20:
 198              	.LBB2:
  68:semaphores.c  ****     
  69:semaphores.c  ****     for (int i = 0; i < 3; i++){
 199              		.loc 1 69 0
 200 001a 0024     		movs	r4, #0
 201 001c 18E0     		b	.L13
 202              	.LVL21:
 203              	.L14:
  70:semaphores.c  ****         PWM_1_WriteCompare( (RIGHT + MIDDLE) / 2 );
 204              		.loc 1 70 0 discriminator 3
 205 001e 4FF47A70 		mov	r0, #1000
 206 0022 FFF7FEFF 		bl	PWM_1_WriteCompare
 207              	.LVL22:
  71:semaphores.c  ****         PWM_2_WriteCompare( (LEFT + MIDDLE) / 2 );
 208              		.loc 1 71 0 discriminator 3
 209 0026 4FF4FA60 		mov	r0, #2000
 210 002a FFF7FEFF 		bl	PWM_2_WriteCompare
 211              	.LVL23:
  72:semaphores.c  ****         CyDelay(SHORTPAUSE);
 212              		.loc 1 72 0 discriminator 3
 213 002e 4FF4FA70 		mov	r0, #500
ARM GAS  C:\Users\laure\AppData\Local\Temp\ccDSBqcD.s 			page 6


 214 0032 FFF7FEFF 		bl	CyDelay
 215              	.LVL24:
  73:semaphores.c  ****         
  74:semaphores.c  ****         PWM_1_WriteCompare( (LEFT + MIDDLE) / 2 );
 216              		.loc 1 74 0 discriminator 3
 217 0036 4FF4FA60 		mov	r0, #2000
 218 003a FFF7FEFF 		bl	PWM_1_WriteCompare
 219              	.LVL25:
  75:semaphores.c  ****         PWM_2_WriteCompare( (RIGHT + MIDDLE) / 2 );
 220              		.loc 1 75 0 discriminator 3
 221 003e 4FF47A70 		mov	r0, #1000
 222 0042 FFF7FEFF 		bl	PWM_2_WriteCompare
 223              	.LVL26:
  76:semaphores.c  ****         CyDelay(SHORTPAUSE);
 224              		.loc 1 76 0 discriminator 3
 225 0046 4FF4FA70 		mov	r0, #500
 226 004a FFF7FEFF 		bl	CyDelay
 227              	.LVL27:
  69:semaphores.c  ****         PWM_1_WriteCompare( (RIGHT + MIDDLE) / 2 );
 228              		.loc 1 69 0 discriminator 3
 229 004e 0134     		adds	r4, r4, #1
 230              	.LVL28:
 231              	.L13:
  69:semaphores.c  ****         PWM_1_WriteCompare( (RIGHT + MIDDLE) / 2 );
 232              		.loc 1 69 0 is_stmt 0 discriminator 1
 233 0050 022C     		cmp	r4, #2
 234 0052 E4DD     		ble	.L14
 235              	.LBE2:
  77:semaphores.c  ****     }
  78:semaphores.c  ****     
  79:semaphores.c  ****     PWM_1_WriteCompare( (RIGHT + MIDDLE) / 2 );
 236              		.loc 1 79 0 is_stmt 1
 237 0054 4FF47A70 		mov	r0, #1000
 238 0058 FFF7FEFF 		bl	PWM_1_WriteCompare
 239              	.LVL29:
  80:semaphores.c  ****     PWM_2_WriteCompare( (LEFT + MIDDLE) / 2 );
 240              		.loc 1 80 0
 241 005c 4FF4FA60 		mov	r0, #2000
 242 0060 FFF7FEFF 		bl	PWM_2_WriteCompare
 243              	.LVL30:
  81:semaphores.c  ****     CyDelay(SHORTPAUSE*2);
 244              		.loc 1 81 0
 245 0064 4FF47A70 		mov	r0, #1000
 246 0068 FFF7FEFF 		bl	CyDelay
 247              	.LVL31:
 248 006c 10BD     		pop	{r4, pc}
 249              		.cfi_endproc
 250              	.LFE67:
 251              		.size	displayAttentionSemaphoreMessage, .-displayAttentionSemaphoreMessage
 252 006e 00BF     		.section	.text.displayMessageAsSemaphoreMorseCode,"ax",%progbits
 253              		.align	2
 254              		.global	displayMessageAsSemaphoreMorseCode
 255              		.thumb
 256              		.thumb_func
 257              		.type	displayMessageAsSemaphoreMorseCode, %function
 258              	displayMessageAsSemaphoreMorseCode:
 259              	.LFB68:
ARM GAS  C:\Users\laure\AppData\Local\Temp\ccDSBqcD.s 			page 7


  82:semaphores.c  ****     
  83:semaphores.c  **** }
  84:semaphores.c  **** 
  85:semaphores.c  **** /* display the morse message passed in parameter using
  86:semaphores.c  ****    the semaphore morse code 
  87:semaphores.c  ****    - putting the flags up means '.'
  88:semaphores.c  ****    - putting the flags horizontally means '-'
  89:semaphores.c  ****    - putting the flags down can either mean a separation
  90:semaphores.c  ****      between two identical letters or mean a space character,
  91:semaphores.c  ****      depending on how much time the flags stay down */
  92:semaphores.c  **** void displayMessageAsSemaphoreMorseCode (char msg[]) {
 260              		.loc 1 92 0
 261              		.cfi_startproc
 262              		@ args = 0, pretend = 0, frame = 0
 263              		@ frame_needed = 0, uses_anonymous_args = 0
 264              	.LVL32:
 265 0000 F8B5     		push	{r3, r4, r5, r6, r7, lr}
 266              		.cfi_def_cfa_offset 24
 267              		.cfi_offset 3, -24
 268              		.cfi_offset 4, -20
 269              		.cfi_offset 5, -16
 270              		.cfi_offset 6, -12
 271              		.cfi_offset 7, -8
 272              		.cfi_offset 14, -4
 273 0002 0646     		mov	r6, r0
  93:semaphores.c  ****     const int LENGTH = strlen(msg);
 274              		.loc 1 93 0
 275 0004 FFF7FEFF 		bl	strlen
 276              	.LVL33:
 277 0008 0746     		mov	r7, r0
 278              	.LVL34:
  94:semaphores.c  ****     
  95:semaphores.c  ****     displayAttentionSemaphoreMessage();
 279              		.loc 1 95 0
 280 000a FFF7FEFF 		bl	displayAttentionSemaphoreMessage
 281              	.LVL35:
 282              	.LBB3:
  96:semaphores.c  ****     
  97:semaphores.c  ****     char lastChar = 'e'; // empty
  98:semaphores.c  ****     for (int j = 0; j < LENGTH; j++)
 283              		.loc 1 98 0
 284 000e 0024     		movs	r4, #0
 285              	.LBE3:
  97:semaphores.c  ****     for (int j = 0; j < LENGTH; j++)
 286              		.loc 1 97 0
 287 0010 6523     		movs	r3, #101
 288              	.LBB4:
 289              		.loc 1 98 0
 290 0012 2AE0     		b	.L17
 291              	.LVL36:
 292              	.L22:
  99:semaphores.c  ****     {
 100:semaphores.c  ****         if (msg[j] == lastChar && lastChar != ' ' && lastChar != '/') {
 293              		.loc 1 100 0
 294 0014 3519     		adds	r5, r6, r4
 295 0016 325D     		ldrb	r2, [r6, r4]	@ zero_extendqisi2
 296 0018 9342     		cmp	r3, r2
ARM GAS  C:\Users\laure\AppData\Local\Temp\ccDSBqcD.s 			page 8


 297 001a 09D1     		bne	.L18
 298              		.loc 1 100 0 is_stmt 0 discriminator 1
 299 001c 202B     		cmp	r3, #32
 300 001e 07D0     		beq	.L18
 301              		.loc 1 100 0 discriminator 2
 302 0020 2F2B     		cmp	r3, #47
 303 0022 05D0     		beq	.L18
 101:semaphores.c  ****             flagsDown();
 304              		.loc 1 101 0 is_stmt 1
 305 0024 FFF7FEFF 		bl	flagsDown
 306              	.LVL37:
 102:semaphores.c  ****             CyDelay(SHORTPAUSE);
 307              		.loc 1 102 0
 308 0028 4FF4FA70 		mov	r0, #500
 309 002c FFF7FEFF 		bl	CyDelay
 310              	.LVL38:
 311              	.L18:
 103:semaphores.c  ****         }
 104:semaphores.c  ****         
 105:semaphores.c  ****         if (msg[j] == '.') {
 312              		.loc 1 105 0
 313 0030 2B78     		ldrb	r3, [r5]	@ zero_extendqisi2
 314 0032 2E2B     		cmp	r3, #46
 315 0034 06D1     		bne	.L19
 106:semaphores.c  ****             verticalFlags();
 316              		.loc 1 106 0
 317 0036 FFF7FEFF 		bl	verticalFlags
 318              	.LVL39:
 107:semaphores.c  ****             CyDelay(SHORTPAUSE);
 319              		.loc 1 107 0
 320 003a 4FF4FA70 		mov	r0, #500
 321 003e FFF7FEFF 		bl	CyDelay
 322              	.LVL40:
 323 0042 10E0     		b	.L20
 324              	.L19:
 108:semaphores.c  ****         }
 109:semaphores.c  ****         
 110:semaphores.c  ****         else if (msg[j] == '-') {
 325              		.loc 1 110 0
 326 0044 2D2B     		cmp	r3, #45
 327 0046 06D1     		bne	.L21
 111:semaphores.c  ****             horizontalFlags();
 328              		.loc 1 111 0
 329 0048 FFF7FEFF 		bl	horizontalFlags
 330              	.LVL41:
 112:semaphores.c  ****             CyDelay(SHORTPAUSE);
 331              		.loc 1 112 0
 332 004c 4FF4FA70 		mov	r0, #500
 333 0050 FFF7FEFF 		bl	CyDelay
 334              	.LVL42:
 335 0054 07E0     		b	.L20
 336              	.L21:
 113:semaphores.c  ****         }
 114:semaphores.c  ****         
 115:semaphores.c  ****         else if (msg[j] == ' ') {
 337              		.loc 1 115 0
 338 0056 202B     		cmp	r3, #32
ARM GAS  C:\Users\laure\AppData\Local\Temp\ccDSBqcD.s 			page 9


 339 0058 05D1     		bne	.L20
 116:semaphores.c  ****             flagsDown();
 340              		.loc 1 116 0
 341 005a FFF7FEFF 		bl	flagsDown
 342              	.LVL43:
 117:semaphores.c  ****             CyDelay(LONGPAUSE);
 343              		.loc 1 117 0
 344 005e 40F2DC50 		movw	r0, #1500
 345 0062 FFF7FEFF 		bl	CyDelay
 346              	.LVL44:
 347              	.L20:
 118:semaphores.c  ****         }
 119:semaphores.c  ****         
 120:semaphores.c  ****         lastChar = msg[j];
 348              		.loc 1 120 0 discriminator 2
 349 0066 2B78     		ldrb	r3, [r5]	@ zero_extendqisi2
 350              	.LVL45:
  98:semaphores.c  ****     {
 351              		.loc 1 98 0 discriminator 2
 352 0068 0134     		adds	r4, r4, #1
 353              	.LVL46:
 354              	.L17:
  98:semaphores.c  ****     {
 355              		.loc 1 98 0 is_stmt 0 discriminator 1
 356 006a BC42     		cmp	r4, r7
 357 006c D2DB     		blt	.L22
 358              	.LBE4:
 121:semaphores.c  ****     }
 122:semaphores.c  ****     
 123:semaphores.c  ****     flagsDown();
 359              		.loc 1 123 0 is_stmt 1
 360 006e FFF7FEFF 		bl	flagsDown
 361              	.LVL47:
 124:semaphores.c  ****     CyDelay(LONGPAUSE);
 362              		.loc 1 124 0
 363 0072 40F2DC50 		movw	r0, #1500
 364 0076 FFF7FEFF 		bl	CyDelay
 365              	.LVL48:
 366 007a F8BD     		pop	{r3, r4, r5, r6, r7, pc}
 367              		.cfi_endproc
 368              	.LFE68:
 369              		.size	displayMessageAsSemaphoreMorseCode, .-displayMessageAsSemaphoreMorseCode
 370              		.text
 371              	.Letext0:
 372              		.file 2 "c:\\program files (x86)\\cypress\\psoc creator\\4.3\\psoc creator\\import\\gnu\\arm\\5.4.
 373              		.file 3 "c:\\program files (x86)\\cypress\\psoc creator\\4.3\\psoc creator\\import\\gnu\\arm\\5.4.
 374              		.file 4 "Generated_Source\\PSoC5/AMux.h"
 375              		.file 5 "Generated_Source\\PSoC5/ADC_DelSig.h"
 376              		.file 6 "Generated_Source\\PSoC5/PWM_1.h"
 377              		.file 7 "Generated_Source\\PSoC5/PWM_2.h"
 378              		.file 8 "Generated_Source\\PSoC5/CyLib.h"
 379              		.file 9 "c:\\program files (x86)\\cypress\\psoc creator\\4.3\\psoc creator\\import\\gnu\\arm\\5.4.
 380              		.file 10 "Generated_Source\\PSoC5/core_cm3.h"