ARM GAS  C:\Users\laure\AppData\Local\Temp\ccPwPl2r.s 			page 1


   1              		.syntax unified
   2              		.cpu cortex-m3
   3              		.fpu softvfp
   4              		.eabi_attribute 20, 1
   5              		.eabi_attribute 21, 1
   6              		.eabi_attribute 23, 3
   7              		.eabi_attribute 24, 1
   8              		.eabi_attribute 25, 1
   9              		.eabi_attribute 26, 1
  10              		.eabi_attribute 30, 1
  11              		.eabi_attribute 34, 1
  12              		.eabi_attribute 18, 4
  13              		.thumb
  14              		.syntax unified
  15              		.file	"soundhandler.c"
  16              		.text
  17              	.Ltext0:
  18              		.cfi_sections	.debug_frame
  19              		.global	__aeabi_i2d
  20              		.global	__aeabi_dmul
  21              		.section	.text.initVector,"ax",%progbits
  22              		.align	2
  23              		.global	initVector
  24              		.thumb
  25              		.thumb_func
  26              		.type	initVector, %function
  27              	initVector:
  28              	.LFB63:
  29              		.file 1 "soundhandler.c"
   1:soundhandler.c **** /* ========================================
   2:soundhandler.c ****  *
   3:soundhandler.c ****  * Copyright YOUR COMPANY, THE YEAR
   4:soundhandler.c ****  * All Rights Reserved
   5:soundhandler.c ****  * UNPUBLISHED, LICENSED SOFTWARE.
   6:soundhandler.c ****  *
   7:soundhandler.c ****  * CONFIDENTIAL AND PROPRIETARY INFORMATION
   8:soundhandler.c ****  * WHICH IS THE PROPERTY OF your company.
   9:soundhandler.c ****  *
  10:soundhandler.c ****  * ========================================
  11:soundhandler.c **** */
  12:soundhandler.c **** 
  13:soundhandler.c **** #include "project.h"
  14:soundhandler.c **** #include "soundhandler.h"
  15:soundhandler.c **** 
  16:soundhandler.c **** double vector[100];
  17:soundhandler.c **** 
  18:soundhandler.c **** /* fill the global variable "vector" with values of a sinus */
  19:soundhandler.c **** void initVector (void) {
  30              		.loc 1 19 0
  31              		.cfi_startproc
  32              		@ args = 0, pretend = 0, frame = 0
  33              		@ frame_needed = 0, uses_anonymous_args = 0
  34 0000 10B5     		push	{r4, lr}
  35              		.cfi_def_cfa_offset 8
  36              		.cfi_offset 4, -8
  37              		.cfi_offset 14, -4
  38              	.LVL0:
ARM GAS  C:\Users\laure\AppData\Local\Temp\ccPwPl2r.s 			page 2


  39              	.LBB2:
  20:soundhandler.c ****     for (int i = 0; i < 100; i++){
  40              		.loc 1 20 0
  41 0002 0024     		movs	r4, #0
  42 0004 14E0     		b	.L2
  43              	.LVL1:
  44              	.L3:
  21:soundhandler.c ****         vector[i] = sin( ((i * 3.6) * (PI/180) ) );
  45              		.loc 1 21 0 discriminator 3
  46 0006 2046     		mov	r0, r4
  47 0008 FFF7FEFF 		bl	__aeabi_i2d
  48              	.LVL2:
  49 000c 0AA3     		adr	r3, .L5
  50 000e D3E90023 		ldrd	r2, [r3]
  51 0012 FFF7FEFF 		bl	__aeabi_dmul
  52              	.LVL3:
  53 0016 0AA3     		adr	r3, .L5+8
  54 0018 D3E90023 		ldrd	r2, [r3]
  55 001c FFF7FEFF 		bl	__aeabi_dmul
  56              	.LVL4:
  57 0020 FFF7FEFF 		bl	sin
  58              	.LVL5:
  59 0024 084B     		ldr	r3, .L5+16
  60 0026 03EBC403 		add	r3, r3, r4, lsl #3
  61 002a C3E90001 		strd	r0, [r3]
  20:soundhandler.c ****     for (int i = 0; i < 100; i++){
  62              		.loc 1 20 0 discriminator 3
  63 002e 0134     		adds	r4, r4, #1
  64              	.LVL6:
  65              	.L2:
  20:soundhandler.c ****     for (int i = 0; i < 100; i++){
  66              		.loc 1 20 0 is_stmt 0 discriminator 1
  67 0030 632C     		cmp	r4, #99
  68 0032 E8DD     		ble	.L3
  69              	.LBE2:
  22:soundhandler.c ****     }
  23:soundhandler.c **** }
  70              		.loc 1 23 0 is_stmt 1
  71 0034 10BD     		pop	{r4, pc}
  72              	.LVL7:
  73              	.L6:
  74 0036 00BF     		.align	3
  75              	.L5:
  76 0038 CDCCCCCC 		.word	-858993459
  77 003c CCCC0C40 		.word	1074580684
  78 0040 399D52A2 		.word	-1571644103
  79 0044 46DF913F 		.word	1066524486
  80 0048 00000000 		.word	vector
  81              		.cfi_endproc
  82              	.LFE63:
  83              		.size	initVector, .-initVector
  84              		.section	.text.getTC,"ax",%progbits
  85              		.align	2
  86              		.global	getTC
  87              		.thumb
  88              		.thumb_func
  89              		.type	getTC, %function
ARM GAS  C:\Users\laure\AppData\Local\Temp\ccPwPl2r.s 			page 3


  90              	getTC:
  91              	.LFB64:
  24:soundhandler.c **** 
  25:soundhandler.c **** /* return the value of the TC bit of the timer */
  26:soundhandler.c **** int getTC (void) {
  92              		.loc 1 26 0
  93              		.cfi_startproc
  94              		@ args = 0, pretend = 0, frame = 0
  95              		@ frame_needed = 0, uses_anonymous_args = 0
  96 0000 08B5     		push	{r3, lr}
  97              		.cfi_def_cfa_offset 8
  98              		.cfi_offset 3, -8
  99              		.cfi_offset 14, -4
  27:soundhandler.c ****     return 0x80 & Timer_ReadStatusRegister(); // mask
 100              		.loc 1 27 0
 101 0002 FFF7FEFF 		bl	Timer_ReadStatusRegister
 102              	.LVL8:
  28:soundhandler.c **** }
 103              		.loc 1 28 0
 104 0006 00F08000 		and	r0, r0, #128
 105 000a 08BD     		pop	{r3, pc}
 106              		.cfi_endproc
 107              	.LFE64:
 108              		.size	getTC, .-getTC
 109              		.global	__aeabi_dadd
 110              		.global	__aeabi_d2iz
 111              		.section	.text.setVDACvalue,"ax",%progbits
 112              		.align	2
 113              		.global	setVDACvalue
 114              		.thumb
 115              		.thumb_func
 116              		.type	setVDACvalue, %function
 117              	setVDACvalue:
 118              	.LFB65:
  29:soundhandler.c **** 
  30:soundhandler.c **** /* set the value for the VDAC to the jth element of
  31:soundhandler.c ****    the global variable vector adapted to be within
  32:soundhandler.c ****    the range excepted by the VDAC_SetValue function */
  33:soundhandler.c **** void setVDACvalue (int j) {
 119              		.loc 1 33 0
 120              		.cfi_startproc
 121              		@ args = 0, pretend = 0, frame = 0
 122              		@ frame_needed = 0, uses_anonymous_args = 0
 123              	.LVL9:
 124 0000 08B5     		push	{r3, lr}
 125              		.cfi_def_cfa_offset 8
 126              		.cfi_offset 3, -8
 127              		.cfi_offset 14, -4
  34:soundhandler.c ****     int result = (vector[j] * 128) + 128;
 128              		.loc 1 34 0
 129 0002 0A4B     		ldr	r3, .L13
 130 0004 03EBC000 		add	r0, r3, r0, lsl #3
 131              	.LVL10:
 132 0008 0022     		movs	r2, #0
 133 000a 094B     		ldr	r3, .L13+4
 134 000c 03C8     		ldmia	r0, {r0-r1}
 135 000e FFF7FEFF 		bl	__aeabi_dmul
ARM GAS  C:\Users\laure\AppData\Local\Temp\ccPwPl2r.s 			page 4


 136              	.LVL11:
 137 0012 0022     		movs	r2, #0
 138 0014 064B     		ldr	r3, .L13+4
 139 0016 FFF7FEFF 		bl	__aeabi_dadd
 140              	.LVL12:
 141 001a FFF7FEFF 		bl	__aeabi_d2iz
 142              	.LVL13:
  35:soundhandler.c ****     if (result >= 256) {
 143              		.loc 1 35 0
 144 001e FF28     		cmp	r0, #255
 145 0020 00DD     		ble	.L10
  36:soundhandler.c ****         result = 255; // result in [0,255]
 146              		.loc 1 36 0
 147 0022 FF20     		movs	r0, #255
 148              	.LVL14:
 149              	.L10:
  37:soundhandler.c ****     }
  38:soundhandler.c ****     VDAC_SetValue(result);
 150              		.loc 1 38 0
 151 0024 C0B2     		uxtb	r0, r0
 152              	.LVL15:
 153 0026 FFF7FEFF 		bl	VDAC_SetValue
 154              	.LVL16:
 155 002a 08BD     		pop	{r3, pc}
 156              	.L14:
 157              		.align	2
 158              	.L13:
 159 002c 00000000 		.word	vector
 160 0030 00006040 		.word	1080033280
 161              		.cfi_endproc
 162              	.LFE65:
 163              		.size	setVDACvalue, .-setVDACvalue
 164              		.comm	vector,800,8
 165              		.text
 166              	.Letext0:
 167              		.file 2 "c:\\program files (x86)\\cypress\\psoc creator\\4.3\\psoc creator\\import\\gnu\\arm\\5.4.
 168              		.file 3 "c:\\program files (x86)\\cypress\\psoc creator\\4.3\\psoc creator\\import\\gnu\\arm\\5.4.
 169              		.file 4 "Generated_Source\\PSoC5/core_cm3.h"
 170              		.file 5 "Generated_Source\\PSoC5/Timer.h"
 171              		.file 6 "Generated_Source\\PSoC5/VDAC.h"
 172              		.file 7 "c:\\program files (x86)\\cypress\\psoc creator\\4.3\\psoc creator\\import\\gnu\\arm\\5.4.