ARM GAS  C:\Users\laure\AppData\Local\Temp\cckZz5k9.s 			page 1


   1              		.syntax unified
   2              		.cpu cortex-m3
   3              		.fpu softvfp
   4              		.eabi_attribute 20, 1
   5              		.eabi_attribute 21, 1
   6              		.eabi_attribute 23, 3
   7              		.eabi_attribute 24, 1
   8              		.eabi_attribute 25, 1
   9              		.eabi_attribute 26, 1
  10              		.eabi_attribute 30, 1
  11              		.eabi_attribute 34, 1
  12              		.eabi_attribute 18, 4
  13              		.thumb
  14              		.syntax unified
  15              		.file	"translator.c"
  16              		.text
  17              	.Ltext0:
  18              		.cfi_sections	.debug_frame
  19              		.section	.text.charToMorse,"ax",%progbits
  20              		.align	2
  21              		.global	charToMorse
  22              		.thumb
  23              		.thumb_func
  24              		.type	charToMorse, %function
  25              	charToMorse:
  26              	.LFB64:
  27              		.file 1 "translator.c"
   1:translator.c  **** /* ========================================
   2:translator.c  ****  *
   3:translator.c  ****  * Copyright YOUR COMPANY, THE YEAR
   4:translator.c  ****  * All Rights Reserved
   5:translator.c  ****  * UNPUBLISHED, LICENSED SOFTWARE.
   6:translator.c  ****  *
   7:translator.c  ****  * CONFIDENTIAL AND PROPRIETARY INFORMATION
   8:translator.c  ****  * WHICH IS THE PROPERTY OF your company.
   9:translator.c  ****  *
  10:translator.c  ****  * ========================================
  11:translator.c  **** */
  12:translator.c  **** 
  13:translator.c  **** #include "project.h"
  14:translator.c  **** #include "translator.h"
  15:translator.c  **** 
  16:translator.c  **** char* msgToMorse(char msg[]) {
  17:translator.c  ****     
  18:translator.c  ****     const int LENGTH = strlen(msg);
  19:translator.c  ****     
  20:translator.c  ****     char translation[LENGTH*7]; // the maximal numbers of characters
  21:translator.c  ****                                 // needed to representent any character
  22:translator.c  ****                                 // in morse code is 7
  23:translator.c  **** 
  24:translator.c  ****     strcpy(translation, "");
  25:translator.c  ****     
  26:translator.c  ****     for (int i = 0; i < LENGTH; i++)
  27:translator.c  ****     {
  28:translator.c  ****         char* code = charToMorse( msg[i] );
  29:translator.c  ****         
  30:translator.c  ****         strcat(translation, code);
ARM GAS  C:\Users\laure\AppData\Local\Temp\cckZz5k9.s 			page 2


  31:translator.c  ****         strcat(translation, " ");
  32:translator.c  ****         
  33:translator.c  ****     }
  34:translator.c  ****     
  35:translator.c  ****     strcat(translation, "\0"); // null character means end of string
  36:translator.c  ****     char* morse = translation;
  37:translator.c  ****     
  38:translator.c  ****     return morse;
  39:translator.c  **** }
  40:translator.c  **** 
  41:translator.c  **** char* charToMorse(char c) {
  28              		.loc 1 41 0
  29              		.cfi_startproc
  30              		@ args = 0, pretend = 0, frame = 0
  31              		@ frame_needed = 0, uses_anonymous_args = 0
  32              		@ link register save eliminated.
  33              	.LVL0:
  42:translator.c  ****     
  43:translator.c  ****     char* code = "";
  44:translator.c  ****     
  45:translator.c  ****     switch (c)
  34              		.loc 1 45 0
  35 0000 2038     		subs	r0, r0, #32
  36              	.LVL1:
  37 0002 5A28     		cmp	r0, #90
  38 0004 5CD8     		bhi	.L2
  39 0006 DFE810F0 		tbh	[pc, r0, lsl #1]
  40              	.L4:
  41 000a C900     		.2byte	(.L59-.L4)/2
  42 000c AD00     		.2byte	(.L5-.L4)/2
  43 000e C300     		.2byte	(.L6-.L4)/2
  44 0010 5B00     		.2byte	(.L2-.L4)/2
  45 0012 C500     		.2byte	(.L7-.L4)/2
  46 0014 5B00     		.2byte	(.L2-.L4)/2
  47 0016 B500     		.2byte	(.L8-.L4)/2
  48 0018 AB00     		.2byte	(.L9-.L4)/2
  49 001a B100     		.2byte	(.L10-.L4)/2
  50 001c B300     		.2byte	(.L11-.L4)/2
  51 001e 5B00     		.2byte	(.L2-.L4)/2
  52 0020 BD00     		.2byte	(.L12-.L4)/2
  53 0022 A700     		.2byte	(.L13-.L4)/2
  54 0024 BF00     		.2byte	(.L14-.L4)/2
  55 0026 A500     		.2byte	(.L15-.L4)/2
  56 0028 AF00     		.2byte	(.L16-.L4)/2
  57 002a 9100     		.2byte	(.L17-.L4)/2
  58 002c 9300     		.2byte	(.L18-.L4)/2
  59 002e 9500     		.2byte	(.L19-.L4)/2
  60 0030 9700     		.2byte	(.L20-.L4)/2
  61 0032 9900     		.2byte	(.L21-.L4)/2
  62 0034 9B00     		.2byte	(.L22-.L4)/2
  63 0036 9D00     		.2byte	(.L23-.L4)/2
  64 0038 9F00     		.2byte	(.L24-.L4)/2
  65 003a A100     		.2byte	(.L25-.L4)/2
  66 003c A300     		.2byte	(.L26-.L4)/2
  67 003e B700     		.2byte	(.L27-.L4)/2
  68 0040 B900     		.2byte	(.L28-.L4)/2
  69 0042 5B00     		.2byte	(.L2-.L4)/2
ARM GAS  C:\Users\laure\AppData\Local\Temp\cckZz5k9.s 			page 3


  70 0044 BB00     		.2byte	(.L29-.L4)/2
  71 0046 5B00     		.2byte	(.L2-.L4)/2
  72 0048 A900     		.2byte	(.L30-.L4)/2
  73 004a C700     		.2byte	(.L31-.L4)/2
  74 004c 5D00     		.2byte	(.L32-.L4)/2
  75 004e 5F00     		.2byte	(.L33-.L4)/2
  76 0050 6100     		.2byte	(.L34-.L4)/2
  77 0052 6300     		.2byte	(.L35-.L4)/2
  78 0054 6500     		.2byte	(.L36-.L4)/2
  79 0056 6700     		.2byte	(.L37-.L4)/2
  80 0058 6900     		.2byte	(.L38-.L4)/2
  81 005a 6B00     		.2byte	(.L39-.L4)/2
  82 005c 6D00     		.2byte	(.L40-.L4)/2
  83 005e 6F00     		.2byte	(.L41-.L4)/2
  84 0060 7100     		.2byte	(.L42-.L4)/2
  85 0062 7300     		.2byte	(.L43-.L4)/2
  86 0064 7500     		.2byte	(.L44-.L4)/2
  87 0066 7700     		.2byte	(.L45-.L4)/2
  88 0068 7900     		.2byte	(.L46-.L4)/2
  89 006a 7B00     		.2byte	(.L47-.L4)/2
  90 006c 7D00     		.2byte	(.L48-.L4)/2
  91 006e 7F00     		.2byte	(.L49-.L4)/2
  92 0070 8100     		.2byte	(.L50-.L4)/2
  93 0072 8300     		.2byte	(.L51-.L4)/2
  94 0074 8500     		.2byte	(.L52-.L4)/2
  95 0076 8700     		.2byte	(.L53-.L4)/2
  96 0078 8900     		.2byte	(.L54-.L4)/2
  97 007a 8B00     		.2byte	(.L55-.L4)/2
  98 007c 8D00     		.2byte	(.L56-.L4)/2
  99 007e 8F00     		.2byte	(.L57-.L4)/2
 100 0080 5B00     		.2byte	(.L2-.L4)/2
 101 0082 5B00     		.2byte	(.L2-.L4)/2
 102 0084 5B00     		.2byte	(.L2-.L4)/2
 103 0086 5B00     		.2byte	(.L2-.L4)/2
 104 0088 C100     		.2byte	(.L58-.L4)/2
 105 008a 5B00     		.2byte	(.L2-.L4)/2
 106 008c 5D00     		.2byte	(.L32-.L4)/2
 107 008e 5F00     		.2byte	(.L33-.L4)/2
 108 0090 6100     		.2byte	(.L34-.L4)/2
 109 0092 6300     		.2byte	(.L35-.L4)/2
 110 0094 6500     		.2byte	(.L36-.L4)/2
 111 0096 6700     		.2byte	(.L37-.L4)/2
 112 0098 6900     		.2byte	(.L38-.L4)/2
 113 009a 6B00     		.2byte	(.L39-.L4)/2
 114 009c 6D00     		.2byte	(.L40-.L4)/2
 115 009e 6F00     		.2byte	(.L41-.L4)/2
 116 00a0 7100     		.2byte	(.L42-.L4)/2
 117 00a2 7300     		.2byte	(.L43-.L4)/2
 118 00a4 7500     		.2byte	(.L44-.L4)/2
 119 00a6 7700     		.2byte	(.L45-.L4)/2
 120 00a8 7900     		.2byte	(.L46-.L4)/2
 121 00aa 7B00     		.2byte	(.L47-.L4)/2
 122 00ac 7D00     		.2byte	(.L48-.L4)/2
 123 00ae 7F00     		.2byte	(.L49-.L4)/2
 124 00b0 8100     		.2byte	(.L50-.L4)/2
 125 00b2 8300     		.2byte	(.L51-.L4)/2
 126 00b4 8500     		.2byte	(.L52-.L4)/2
ARM GAS  C:\Users\laure\AppData\Local\Temp\cckZz5k9.s 			page 4


 127 00b6 8700     		.2byte	(.L53-.L4)/2
 128 00b8 8900     		.2byte	(.L54-.L4)/2
 129 00ba 8B00     		.2byte	(.L55-.L4)/2
 130 00bc 8D00     		.2byte	(.L56-.L4)/2
 131 00be 8F00     		.2byte	(.L57-.L4)/2
 132              		.p2align 1
 133              	.L2:
  43:translator.c  ****     
 134              		.loc 1 43 0
 135 00c0 3748     		ldr	r0, .L60
 136 00c2 7047     		bx	lr
 137              	.L32:
 138              	.LVL2:
  46:translator.c  ****     {
  47:translator.c  ****         /* space */
  48:translator.c  ****         case ' ':
  49:translator.c  ****             code = " / ";
  50:translator.c  ****             break;
  51:translator.c  ****         
  52:translator.c  ****         /* all letters of the latin alphabet */
  53:translator.c  ****         case 'a':
  54:translator.c  ****         case 'A':
  55:translator.c  ****             code = ".-";
 139              		.loc 1 55 0
 140 00c4 3748     		ldr	r0, .L60+4
  56:translator.c  ****             break;
 141              		.loc 1 56 0
 142 00c6 7047     		bx	lr
 143              	.LVL3:
 144              	.L33:
  57:translator.c  ****         case 'b':
  58:translator.c  ****         case 'B':
  59:translator.c  ****             code = "-...";
 145              		.loc 1 59 0
 146 00c8 3748     		ldr	r0, .L60+8
  60:translator.c  ****             break;
 147              		.loc 1 60 0
 148 00ca 7047     		bx	lr
 149              	.LVL4:
 150              	.L34:
  61:translator.c  ****         case 'c':
  62:translator.c  ****         case 'C':
  63:translator.c  ****             code = "-.-.";
 151              		.loc 1 63 0
 152 00cc 3748     		ldr	r0, .L60+12
  64:translator.c  ****             break;
 153              		.loc 1 64 0
 154 00ce 7047     		bx	lr
 155              	.LVL5:
 156              	.L35:
  65:translator.c  ****         case 'd':
  66:translator.c  ****         case 'D':
  67:translator.c  ****             code = "-..";
 157              		.loc 1 67 0
 158 00d0 3748     		ldr	r0, .L60+16
  68:translator.c  ****             break;
 159              		.loc 1 68 0
ARM GAS  C:\Users\laure\AppData\Local\Temp\cckZz5k9.s 			page 5


 160 00d2 7047     		bx	lr
 161              	.LVL6:
 162              	.L36:
  69:translator.c  ****         case 'e':
  70:translator.c  ****         case 'E':
  71:translator.c  ****             code = ".";
 163              		.loc 1 71 0
 164 00d4 3748     		ldr	r0, .L60+20
  72:translator.c  ****             break;
 165              		.loc 1 72 0
 166 00d6 7047     		bx	lr
 167              	.LVL7:
 168              	.L37:
  73:translator.c  ****         case 'f':
  74:translator.c  ****         case 'F':
  75:translator.c  ****             code = "..-.";
 169              		.loc 1 75 0
 170 00d8 3748     		ldr	r0, .L60+24
  76:translator.c  ****             break;
 171              		.loc 1 76 0
 172 00da 7047     		bx	lr
 173              	.LVL8:
 174              	.L38:
  77:translator.c  ****         case 'g':
  78:translator.c  ****         case 'G':
  79:translator.c  ****             code = "--.";
 175              		.loc 1 79 0
 176 00dc 3748     		ldr	r0, .L60+28
  80:translator.c  ****             break;
 177              		.loc 1 80 0
 178 00de 7047     		bx	lr
 179              	.LVL9:
 180              	.L39:
  81:translator.c  ****         case 'h':
  82:translator.c  ****         case 'H':
  83:translator.c  ****             code = "....";
 181              		.loc 1 83 0
 182 00e0 3748     		ldr	r0, .L60+32
  84:translator.c  ****             break;
 183              		.loc 1 84 0
 184 00e2 7047     		bx	lr
 185              	.LVL10:
 186              	.L40:
  85:translator.c  ****         case 'i':
  86:translator.c  ****         case 'I':
  87:translator.c  ****             code = "..";
 187              		.loc 1 87 0
 188 00e4 3748     		ldr	r0, .L60+36
  88:translator.c  ****             break;
 189              		.loc 1 88 0
 190 00e6 7047     		bx	lr
 191              	.LVL11:
 192              	.L41:
  89:translator.c  ****         case 'j':
  90:translator.c  ****         case 'J':
  91:translator.c  ****             code = ".---";
 193              		.loc 1 91 0
ARM GAS  C:\Users\laure\AppData\Local\Temp\cckZz5k9.s 			page 6


 194 00e8 3748     		ldr	r0, .L60+40
  92:translator.c  ****             break;
 195              		.loc 1 92 0
 196 00ea 7047     		bx	lr
 197              	.LVL12:
 198              	.L42:
  93:translator.c  ****         case 'k':
  94:translator.c  ****         case 'K':
  95:translator.c  ****             code = "-.-";
 199              		.loc 1 95 0
 200 00ec 3748     		ldr	r0, .L60+44
  96:translator.c  ****             break;
 201              		.loc 1 96 0
 202 00ee 7047     		bx	lr
 203              	.LVL13:
 204              	.L43:
  97:translator.c  ****         case 'l':
  98:translator.c  ****         case 'L':
  99:translator.c  ****             code = ".-..";
 205              		.loc 1 99 0
 206 00f0 3748     		ldr	r0, .L60+48
 100:translator.c  ****             break;
 207              		.loc 1 100 0
 208 00f2 7047     		bx	lr
 209              	.LVL14:
 210              	.L44:
 101:translator.c  ****         case 'm':
 102:translator.c  ****         case 'M':
 103:translator.c  ****             code = "--";
 211              		.loc 1 103 0
 212 00f4 3748     		ldr	r0, .L60+52
 104:translator.c  ****             break;
 213              		.loc 1 104 0
 214 00f6 7047     		bx	lr
 215              	.LVL15:
 216              	.L45:
 105:translator.c  ****         case 'n':
 106:translator.c  ****         case 'N':
 107:translator.c  ****             code = "-.";
 217              		.loc 1 107 0
 218 00f8 3748     		ldr	r0, .L60+56
 108:translator.c  ****             break;
 219              		.loc 1 108 0
 220 00fa 7047     		bx	lr
 221              	.LVL16:
 222              	.L46:
 109:translator.c  ****         case 'o':
 110:translator.c  ****         case 'O':
 111:translator.c  ****             code = "---";
 223              		.loc 1 111 0
 224 00fc 3748     		ldr	r0, .L60+60
 112:translator.c  ****             break;
 225              		.loc 1 112 0
 226 00fe 7047     		bx	lr
 227              	.LVL17:
 228              	.L47:
 113:translator.c  ****         case 'p':
ARM GAS  C:\Users\laure\AppData\Local\Temp\cckZz5k9.s 			page 7


 114:translator.c  ****         case 'P':
 115:translator.c  ****             code = ".--.";
 229              		.loc 1 115 0
 230 0100 3748     		ldr	r0, .L60+64
 116:translator.c  ****             break;
 231              		.loc 1 116 0
 232 0102 7047     		bx	lr
 233              	.LVL18:
 234              	.L48:
 117:translator.c  ****         case 'q':
 118:translator.c  ****         case 'Q':
 119:translator.c  ****             code = "--.-";
 235              		.loc 1 119 0
 236 0104 3748     		ldr	r0, .L60+68
 120:translator.c  ****             break;
 237              		.loc 1 120 0
 238 0106 7047     		bx	lr
 239              	.LVL19:
 240              	.L49:
 121:translator.c  ****         case 'r':
 122:translator.c  ****         case 'R':
 123:translator.c  ****             code = ".-.";
 241              		.loc 1 123 0
 242 0108 3748     		ldr	r0, .L60+72
 124:translator.c  ****             break;
 243              		.loc 1 124 0
 244 010a 7047     		bx	lr
 245              	.LVL20:
 246              	.L50:
 125:translator.c  ****         case 's':
 126:translator.c  ****         case 'S':
 127:translator.c  ****             code = "...";
 247              		.loc 1 127 0
 248 010c 3748     		ldr	r0, .L60+76
 128:translator.c  ****             break;
 249              		.loc 1 128 0
 250 010e 7047     		bx	lr
 251              	.LVL21:
 252              	.L51:
 129:translator.c  ****         case 't':
 130:translator.c  ****         case 'T':
 131:translator.c  ****             code = "-";
 253              		.loc 1 131 0
 254 0110 3748     		ldr	r0, .L60+80
 132:translator.c  ****             break;
 255              		.loc 1 132 0
 256 0112 7047     		bx	lr
 257              	.LVL22:
 258              	.L52:
 133:translator.c  ****         case 'u':
 134:translator.c  ****         case 'U':
 135:translator.c  ****             code = "..-";
 259              		.loc 1 135 0
 260 0114 3748     		ldr	r0, .L60+84
 136:translator.c  ****             break;
 261              		.loc 1 136 0
 262 0116 7047     		bx	lr
ARM GAS  C:\Users\laure\AppData\Local\Temp\cckZz5k9.s 			page 8


 263              	.LVL23:
 264              	.L53:
 137:translator.c  ****         case 'v':
 138:translator.c  ****         case 'V':
 139:translator.c  ****             code = "...-";
 265              		.loc 1 139 0
 266 0118 3748     		ldr	r0, .L60+88
 140:translator.c  ****             break;
 267              		.loc 1 140 0
 268 011a 7047     		bx	lr
 269              	.LVL24:
 270              	.L54:
 141:translator.c  ****         case 'w':
 142:translator.c  ****         case 'W':
 143:translator.c  ****             code = ".--";
 271              		.loc 1 143 0
 272 011c 3748     		ldr	r0, .L60+92
 144:translator.c  ****             break;
 273              		.loc 1 144 0
 274 011e 7047     		bx	lr
 275              	.LVL25:
 276              	.L55:
 145:translator.c  ****         case 'x':
 146:translator.c  ****         case 'X':
 147:translator.c  ****             code = "-..-";
 277              		.loc 1 147 0
 278 0120 3748     		ldr	r0, .L60+96
 148:translator.c  ****             break;
 279              		.loc 1 148 0
 280 0122 7047     		bx	lr
 281              	.LVL26:
 282              	.L56:
 149:translator.c  ****         case 'y':
 150:translator.c  ****         case 'Y':
 151:translator.c  ****             code = "-.--";
 283              		.loc 1 151 0
 284 0124 3748     		ldr	r0, .L60+100
 152:translator.c  ****             break;
 285              		.loc 1 152 0
 286 0126 7047     		bx	lr
 287              	.LVL27:
 288              	.L57:
 153:translator.c  ****         case 'z':
 154:translator.c  ****         case 'Z':
 155:translator.c  ****             code = "--..";
 289              		.loc 1 155 0
 290 0128 3748     		ldr	r0, .L60+104
 156:translator.c  ****             break;
 291              		.loc 1 156 0
 292 012a 7047     		bx	lr
 293              	.LVL28:
 294              	.L17:
 157:translator.c  ****         
 158:translator.c  ****         /* numbers */
 159:translator.c  ****         case '0':
 160:translator.c  ****             code = "-----";
 295              		.loc 1 160 0
ARM GAS  C:\Users\laure\AppData\Local\Temp\cckZz5k9.s 			page 9


 296 012c 3748     		ldr	r0, .L60+108
 161:translator.c  ****             break;
 297              		.loc 1 161 0
 298 012e 7047     		bx	lr
 299              	.LVL29:
 300              	.L18:
 162:translator.c  ****         case '1':
 163:translator.c  ****             code = ".----";
 301              		.loc 1 163 0
 302 0130 3748     		ldr	r0, .L60+112
 164:translator.c  ****             break;
 303              		.loc 1 164 0
 304 0132 7047     		bx	lr
 305              	.LVL30:
 306              	.L19:
 165:translator.c  ****         case '2':
 166:translator.c  ****             code = "..---";
 307              		.loc 1 166 0
 308 0134 3748     		ldr	r0, .L60+116
 167:translator.c  ****             break;
 309              		.loc 1 167 0
 310 0136 7047     		bx	lr
 311              	.LVL31:
 312              	.L20:
 168:translator.c  ****         case '3':
 169:translator.c  ****             code = "...--";
 313              		.loc 1 169 0
 314 0138 3748     		ldr	r0, .L60+120
 170:translator.c  ****             break;
 315              		.loc 1 170 0
 316 013a 7047     		bx	lr
 317              	.LVL32:
 318              	.L21:
 171:translator.c  ****         case '4':
 172:translator.c  ****             code = "....-";
 319              		.loc 1 172 0
 320 013c 3748     		ldr	r0, .L60+124
 173:translator.c  ****             break;
 321              		.loc 1 173 0
 322 013e 7047     		bx	lr
 323              	.LVL33:
 324              	.L22:
 174:translator.c  ****         case '5':
 175:translator.c  ****             code = ".....";
 325              		.loc 1 175 0
 326 0140 3748     		ldr	r0, .L60+128
 176:translator.c  ****             break;
 327              		.loc 1 176 0
 328 0142 7047     		bx	lr
 329              	.LVL34:
 330              	.L23:
 177:translator.c  ****         case '6':
 178:translator.c  ****             code = "-....";
 331              		.loc 1 178 0
 332 0144 3748     		ldr	r0, .L60+132
 179:translator.c  ****             break;
 333              		.loc 1 179 0
ARM GAS  C:\Users\laure\AppData\Local\Temp\cckZz5k9.s 			page 10


 334 0146 7047     		bx	lr
 335              	.LVL35:
 336              	.L24:
 180:translator.c  ****         case '7':
 181:translator.c  ****             code = "--...";
 337              		.loc 1 181 0
 338 0148 3748     		ldr	r0, .L60+136
 182:translator.c  ****             break;
 339              		.loc 1 182 0
 340 014a 7047     		bx	lr
 341              	.LVL36:
 342              	.L25:
 183:translator.c  ****         case '8':
 184:translator.c  ****             code = "---..";
 343              		.loc 1 184 0
 344 014c 3748     		ldr	r0, .L60+140
 185:translator.c  ****             break;
 345              		.loc 1 185 0
 346 014e 7047     		bx	lr
 347              	.LVL37:
 348              	.L26:
 186:translator.c  ****         case '9':
 187:translator.c  ****             code = "----.";
 349              		.loc 1 187 0
 350 0150 3748     		ldr	r0, .L60+144
 188:translator.c  ****             break;
 351              		.loc 1 188 0
 352 0152 7047     		bx	lr
 353              	.LVL38:
 354              	.L15:
 189:translator.c  ****         
 190:translator.c  ****         /* symbols */
 191:translator.c  ****         case '.':
 192:translator.c  ****             code = ".-.-.-";
 355              		.loc 1 192 0
 356 0154 3748     		ldr	r0, .L60+148
 193:translator.c  ****             break;
 357              		.loc 1 193 0
 358 0156 7047     		bx	lr
 359              	.LVL39:
 360              	.L13:
 194:translator.c  ****         case ',':
 195:translator.c  ****             code = "--..--";
 361              		.loc 1 195 0
 362 0158 3748     		ldr	r0, .L60+152
 196:translator.c  ****             break;
 363              		.loc 1 196 0
 364 015a 7047     		bx	lr
 365              	.LVL40:
 366              	.L30:
 197:translator.c  ****         case '?':
 198:translator.c  ****             code = "..--..";
 367              		.loc 1 198 0
 368 015c 3748     		ldr	r0, .L60+156
 199:translator.c  ****             break;
 369              		.loc 1 199 0
 370 015e 7047     		bx	lr
ARM GAS  C:\Users\laure\AppData\Local\Temp\cckZz5k9.s 			page 11


 371              	.LVL41:
 372              	.L9:
 200:translator.c  ****         case '\'':
 201:translator.c  ****             code = ".----.";
 373              		.loc 1 201 0
 374 0160 3748     		ldr	r0, .L60+160
 202:translator.c  ****             break;
 375              		.loc 1 202 0
 376 0162 7047     		bx	lr
 377              	.LVL42:
 378              	.L5:
 203:translator.c  ****         case '!':
 204:translator.c  ****             code = "-.-.-----.";
 379              		.loc 1 204 0
 380 0164 3748     		ldr	r0, .L60+164
 205:translator.c  ****             break;
 381              		.loc 1 205 0
 382 0166 7047     		bx	lr
 383              	.LVL43:
 384              	.L16:
 206:translator.c  ****         case '/':
 207:translator.c  ****             code = "-..-.";
 385              		.loc 1 207 0
 386 0168 3748     		ldr	r0, .L60+168
 208:translator.c  ****             break;
 387              		.loc 1 208 0
 388 016a 7047     		bx	lr
 389              	.LVL44:
 390              	.L10:
 209:translator.c  ****         case '(':
 210:translator.c  ****             code = "-.--.";
 391              		.loc 1 210 0
 392 016c 3748     		ldr	r0, .L60+172
 211:translator.c  ****             break;
 393              		.loc 1 211 0
 394 016e 7047     		bx	lr
 395              	.LVL45:
 396              	.L11:
 212:translator.c  ****         case ')':
 213:translator.c  ****             code = "-.--.-";
 397              		.loc 1 213 0
 398 0170 3748     		ldr	r0, .L60+176
 214:translator.c  ****             break;
 399              		.loc 1 214 0
 400 0172 7047     		bx	lr
 401              	.LVL46:
 402              	.L8:
 215:translator.c  ****         case '&':
 216:translator.c  ****             code = ".-...";
 403              		.loc 1 216 0
 404 0174 3748     		ldr	r0, .L60+180
 217:translator.c  ****             break;
 405              		.loc 1 217 0
 406 0176 7047     		bx	lr
 407              	.LVL47:
 408              	.L27:
 218:translator.c  ****         case ':':
ARM GAS  C:\Users\laure\AppData\Local\Temp\cckZz5k9.s 			page 12


 219:translator.c  ****             code = "---...";
 409              		.loc 1 219 0
 410 0178 3748     		ldr	r0, .L60+184
 220:translator.c  ****             break;
 411              		.loc 1 220 0
 412 017a 7047     		bx	lr
 413              	.LVL48:
 414              	.L28:
 221:translator.c  ****         case ';':
 222:translator.c  ****             code = "-.-.-.";
 415              		.loc 1 222 0
 416 017c 3748     		ldr	r0, .L60+188
 223:translator.c  ****             break;
 417              		.loc 1 223 0
 418 017e 7047     		bx	lr
 419              	.LVL49:
 420              	.L29:
 224:translator.c  ****         case '=':
 225:translator.c  ****             code = ".---.";
 421              		.loc 1 225 0
 422 0180 3748     		ldr	r0, .L60+192
 226:translator.c  ****             break;
 423              		.loc 1 226 0
 424 0182 7047     		bx	lr
 425              	.LVL50:
 426              	.L12:
 227:translator.c  ****         case '+':
 228:translator.c  ****             code = ".-.-.";
 427              		.loc 1 228 0
 428 0184 3748     		ldr	r0, .L60+196
 229:translator.c  ****             break;
 429              		.loc 1 229 0
 430 0186 7047     		bx	lr
 431              	.LVL51:
 432              	.L14:
 230:translator.c  ****         case '-':
 231:translator.c  ****             code = "-....-";
 433              		.loc 1 231 0
 434 0188 3748     		ldr	r0, .L60+200
 232:translator.c  ****             break;
 435              		.loc 1 232 0
 436 018a 7047     		bx	lr
 437              	.LVL52:
 438              	.L58:
 233:translator.c  ****         case '_':
 234:translator.c  ****             code = "..--.-";
 439              		.loc 1 234 0
 440 018c 3748     		ldr	r0, .L60+204
 235:translator.c  ****             break;
 441              		.loc 1 235 0
 442 018e 7047     		bx	lr
 443              	.LVL53:
 444              	.L6:
 236:translator.c  ****         case '"':
 237:translator.c  ****             code = ".-..-.";
 445              		.loc 1 237 0
 446 0190 3748     		ldr	r0, .L60+208
ARM GAS  C:\Users\laure\AppData\Local\Temp\cckZz5k9.s 			page 13


 238:translator.c  ****             break;
 447              		.loc 1 238 0
 448 0192 7047     		bx	lr
 449              	.LVL54:
 450              	.L7:
 239:translator.c  ****         case '$':
 240:translator.c  ****             code = "...-..-";
 451              		.loc 1 240 0
 452 0194 3748     		ldr	r0, .L60+212
 241:translator.c  ****             break;
 453              		.loc 1 241 0
 454 0196 7047     		bx	lr
 455              	.LVL55:
 456              	.L31:
 242:translator.c  ****         case '@':
 243:translator.c  ****             code = ".--.-.";
 457              		.loc 1 243 0
 458 0198 3748     		ldr	r0, .L60+216
 244:translator.c  ****             break;
 459              		.loc 1 244 0
 460 019a 7047     		bx	lr
 461              	.LVL56:
 462              	.L59:
  49:translator.c  ****             break;
 463              		.loc 1 49 0
 464 019c 3748     		ldr	r0, .L60+220
 465              	.LVL57:
 245:translator.c  ****         default:
 246:translator.c  ****             break;
 247:translator.c  ****     }
 248:translator.c  ****     
 249:translator.c  ****     return code;
 250:translator.c  **** }
 466              		.loc 1 250 0
 467 019e 7047     		bx	lr
 468              	.L61:
 469              		.align	2
 470              	.L60:
 471 01a0 80010000 		.word	.LC55
 472 01a4 04000000 		.word	.LC1
 473 01a8 08000000 		.word	.LC2
 474 01ac 10000000 		.word	.LC3
 475 01b0 18000000 		.word	.LC4
 476 01b4 1C000000 		.word	.LC5
 477 01b8 20000000 		.word	.LC6
 478 01bc 28000000 		.word	.LC7
 479 01c0 2C000000 		.word	.LC8
 480 01c4 34000000 		.word	.LC9
 481 01c8 38000000 		.word	.LC10
 482 01cc 40000000 		.word	.LC11
 483 01d0 44000000 		.word	.LC12
 484 01d4 4C000000 		.word	.LC13
 485 01d8 50000000 		.word	.LC14
 486 01dc 54000000 		.word	.LC15
 487 01e0 58000000 		.word	.LC16
 488 01e4 60000000 		.word	.LC17
 489 01e8 68000000 		.word	.LC18
ARM GAS  C:\Users\laure\AppData\Local\Temp\cckZz5k9.s 			page 14


 490 01ec 6C000000 		.word	.LC19
 491 01f0 70000000 		.word	.LC20
 492 01f4 74000000 		.word	.LC21
 493 01f8 78000000 		.word	.LC22
 494 01fc 80000000 		.word	.LC23
 495 0200 84000000 		.word	.LC24
 496 0204 8C000000 		.word	.LC25
 497 0208 94000000 		.word	.LC26
 498 020c 9C000000 		.word	.LC27
 499 0210 A4000000 		.word	.LC28
 500 0214 AC000000 		.word	.LC29
 501 0218 B4000000 		.word	.LC30
 502 021c BC000000 		.word	.LC31
 503 0220 C4000000 		.word	.LC32
 504 0224 CC000000 		.word	.LC33
 505 0228 D4000000 		.word	.LC34
 506 022c DC000000 		.word	.LC35
 507 0230 E4000000 		.word	.LC36
 508 0234 EC000000 		.word	.LC37
 509 0238 F4000000 		.word	.LC38
 510 023c FC000000 		.word	.LC39
 511 0240 04010000 		.word	.LC40
 512 0244 0C010000 		.word	.LC41
 513 0248 18010000 		.word	.LC42
 514 024c 20010000 		.word	.LC43
 515 0250 28010000 		.word	.LC44
 516 0254 30010000 		.word	.LC45
 517 0258 38010000 		.word	.LC46
 518 025c 40010000 		.word	.LC47
 519 0260 48010000 		.word	.LC48
 520 0264 50010000 		.word	.LC49
 521 0268 58010000 		.word	.LC50
 522 026c 60010000 		.word	.LC51
 523 0270 68010000 		.word	.LC52
 524 0274 70010000 		.word	.LC53
 525 0278 78010000 		.word	.LC54
 526 027c 00000000 		.word	.LC0
 527              		.cfi_endproc
 528              	.LFE64:
 529              		.size	charToMorse, .-charToMorse
 530              		.section	.text.msgToMorse,"ax",%progbits
 531              		.align	2
 532              		.global	msgToMorse
 533              		.thumb
 534              		.thumb_func
 535              		.type	msgToMorse, %function
 536              	msgToMorse:
 537              	.LFB63:
  16:translator.c  ****     
 538              		.loc 1 16 0
 539              		.cfi_startproc
 540              		@ args = 0, pretend = 0, frame = 0
 541              		@ frame_needed = 1, uses_anonymous_args = 0
 542              	.LVL58:
 543 0000 2DE9F041 		push	{r4, r5, r6, r7, r8, lr}
 544              		.cfi_def_cfa_offset 24
 545              		.cfi_offset 4, -24
ARM GAS  C:\Users\laure\AppData\Local\Temp\cckZz5k9.s 			page 15


 546              		.cfi_offset 5, -20
 547              		.cfi_offset 6, -16
 548              		.cfi_offset 7, -12
 549              		.cfi_offset 8, -8
 550              		.cfi_offset 14, -4
 551 0004 00AF     		add	r7, sp, #0
 552              		.cfi_def_cfa_register 7
 553 0006 8046     		mov	r8, r0
  18:translator.c  ****     
 554              		.loc 1 18 0
 555 0008 FFF7FEFF 		bl	strlen
 556              	.LVL59:
 557 000c 0646     		mov	r6, r0
 558              	.LVL60:
  20:translator.c  ****                                 // needed to representent any character
 559              		.loc 1 20 0
 560 000e C0EBC000 		rsb	r0, r0, r0, lsl #3
 561              	.LVL61:
 562 0012 0730     		adds	r0, r0, #7
 563              	.LVL62:
 564 0014 20F00700 		bic	r0, r0, #7
 565              	.LVL63:
 566 0018 ADEB000D 		sub	sp, sp, r0
 567 001c 6D46     		mov	r5, sp
 568              	.LVL64:
  24:translator.c  ****     
 569              		.loc 1 24 0
 570 001e 0024     		movs	r4, #0
 571 0020 8DF80040 		strb	r4, [sp]
 572              	.LVL65:
 573              	.LBB2:
  26:translator.c  ****     {
 574              		.loc 1 26 0
 575 0024 0EE0     		b	.L63
 576              	.LVL66:
 577              	.L64:
 578              	.LBB3:
  28:translator.c  ****         
 579              		.loc 1 28 0 discriminator 3
 580 0026 18F80400 		ldrb	r0, [r8, r4]	@ zero_extendqisi2
 581 002a FFF7FEFF 		bl	charToMorse
 582              	.LVL67:
  30:translator.c  ****         strcat(translation, " ");
 583              		.loc 1 30 0 discriminator 3
 584 002e 0146     		mov	r1, r0
 585 0030 2846     		mov	r0, r5
 586              	.LVL68:
 587 0032 FFF7FEFF 		bl	strcat
 588              	.LVL69:
  31:translator.c  ****         
 589              		.loc 1 31 0 discriminator 3
 590 0036 2846     		mov	r0, r5
 591 0038 FFF7FEFF 		bl	strlen
 592              	.LVL70:
 593 003c 044B     		ldr	r3, .L66
 594 003e 1B88     		ldrh	r3, [r3]	@ unaligned
 595 0040 2B52     		strh	r3, [r5, r0]	@ unaligned
ARM GAS  C:\Users\laure\AppData\Local\Temp\cckZz5k9.s 			page 16


 596              	.LBE3:
  26:translator.c  ****     {
 597              		.loc 1 26 0 discriminator 3
 598 0042 0134     		adds	r4, r4, #1
 599              	.LVL71:
 600              	.L63:
  26:translator.c  ****     {
 601              		.loc 1 26 0 is_stmt 0 discriminator 1
 602 0044 B442     		cmp	r4, r6
 603 0046 EEDB     		blt	.L64
 604              	.LVL72:
 605              	.LBE2:
  39:translator.c  **** 
 606              		.loc 1 39 0 is_stmt 1
 607 0048 2846     		mov	r0, r5
 608 004a BD46     		mov	sp, r7
 609              		.cfi_def_cfa_register 13
 610              		@ sp needed
 611 004c BDE8F081 		pop	{r4, r5, r6, r7, r8, pc}
 612              	.LVL73:
 613              	.L67:
 614              		.align	2
 615              	.L66:
 616 0050 84010000 		.word	.LC56
 617              		.cfi_endproc
 618              	.LFE63:
 619              		.size	msgToMorse, .-msgToMorse
 620              		.section	.rodata.str1.4,"aMS",%progbits,1
 621              		.align	2
 622              	.LC0:
 623 0000 202F2000 		.ascii	" / \000"
 624              	.LC1:
 625 0004 2E2D00   		.ascii	".-\000"
 626 0007 00       		.space	1
 627              	.LC2:
 628 0008 2D2E2E2E 		.ascii	"-...\000"
 628      00
 629 000d 000000   		.space	3
 630              	.LC3:
 631 0010 2D2E2D2E 		.ascii	"-.-.\000"
 631      00
 632 0015 000000   		.space	3
 633              	.LC4:
 634 0018 2D2E2E00 		.ascii	"-..\000"
 635              	.LC5:
 636 001c 2E00     		.ascii	".\000"
 637 001e 0000     		.space	2
 638              	.LC6:
 639 0020 2E2E2D2E 		.ascii	"..-.\000"
 639      00
 640 0025 000000   		.space	3
 641              	.LC7:
 642 0028 2D2D2E00 		.ascii	"--.\000"
 643              	.LC8:
 644 002c 2E2E2E2E 		.ascii	"....\000"
 644      00
 645 0031 000000   		.space	3
ARM GAS  C:\Users\laure\AppData\Local\Temp\cckZz5k9.s 			page 17


 646              	.LC9:
 647 0034 2E2E00   		.ascii	"..\000"
 648 0037 00       		.space	1
 649              	.LC10:
 650 0038 2E2D2D2D 		.ascii	".---\000"
 650      00
 651 003d 000000   		.space	3
 652              	.LC11:
 653 0040 2D2E2D00 		.ascii	"-.-\000"
 654              	.LC12:
 655 0044 2E2D2E2E 		.ascii	".-..\000"
 655      00
 656 0049 000000   		.space	3
 657              	.LC13:
 658 004c 2D2D00   		.ascii	"--\000"
 659 004f 00       		.space	1
 660              	.LC14:
 661 0050 2D2E00   		.ascii	"-.\000"
 662 0053 00       		.space	1
 663              	.LC15:
 664 0054 2D2D2D00 		.ascii	"---\000"
 665              	.LC16:
 666 0058 2E2D2D2E 		.ascii	".--.\000"
 666      00
 667 005d 000000   		.space	3
 668              	.LC17:
 669 0060 2D2D2E2D 		.ascii	"--.-\000"
 669      00
 670 0065 000000   		.space	3
 671              	.LC18:
 672 0068 2E2D2E00 		.ascii	".-.\000"
 673              	.LC19:
 674 006c 2E2E2E00 		.ascii	"...\000"
 675              	.LC20:
 676 0070 2D00     		.ascii	"-\000"
 677 0072 0000     		.space	2
 678              	.LC21:
 679 0074 2E2E2D00 		.ascii	"..-\000"
 680              	.LC22:
 681 0078 2E2E2E2D 		.ascii	"...-\000"
 681      00
 682 007d 000000   		.space	3
 683              	.LC23:
 684 0080 2E2D2D00 		.ascii	".--\000"
 685              	.LC24:
 686 0084 2D2E2E2D 		.ascii	"-..-\000"
 686      00
 687 0089 000000   		.space	3
 688              	.LC25:
 689 008c 2D2E2D2D 		.ascii	"-.--\000"
 689      00
 690 0091 000000   		.space	3
 691              	.LC26:
 692 0094 2D2D2E2E 		.ascii	"--..\000"
 692      00
 693 0099 000000   		.space	3
 694              	.LC27:
ARM GAS  C:\Users\laure\AppData\Local\Temp\cckZz5k9.s 			page 18


 695 009c 2D2D2D2D 		.ascii	"-----\000"
 695      2D00
 696 00a2 0000     		.space	2
 697              	.LC28:
 698 00a4 2E2D2D2D 		.ascii	".----\000"
 698      2D00
 699 00aa 0000     		.space	2
 700              	.LC29:
 701 00ac 2E2E2D2D 		.ascii	"..---\000"
 701      2D00
 702 00b2 0000     		.space	2
 703              	.LC30:
 704 00b4 2E2E2E2D 		.ascii	"...--\000"
 704      2D00
 705 00ba 0000     		.space	2
 706              	.LC31:
 707 00bc 2E2E2E2E 		.ascii	"....-\000"
 707      2D00
 708 00c2 0000     		.space	2
 709              	.LC32:
 710 00c4 2E2E2E2E 		.ascii	".....\000"
 710      2E00
 711 00ca 0000     		.space	2
 712              	.LC33:
 713 00cc 2D2E2E2E 		.ascii	"-....\000"
 713      2E00
 714 00d2 0000     		.space	2
 715              	.LC34:
 716 00d4 2D2D2E2E 		.ascii	"--...\000"
 716      2E00
 717 00da 0000     		.space	2
 718              	.LC35:
 719 00dc 2D2D2D2E 		.ascii	"---..\000"
 719      2E00
 720 00e2 0000     		.space	2
 721              	.LC36:
 722 00e4 2D2D2D2D 		.ascii	"----.\000"
 722      2E00
 723 00ea 0000     		.space	2
 724              	.LC37:
 725 00ec 2E2D2E2D 		.ascii	".-.-.-\000"
 725      2E2D00
 726 00f3 00       		.space	1
 727              	.LC38:
 728 00f4 2D2D2E2E 		.ascii	"--..--\000"
 728      2D2D00
 729 00fb 00       		.space	1
 730              	.LC39:
 731 00fc 2E2E2D2D 		.ascii	"..--..\000"
 731      2E2E00
 732 0103 00       		.space	1
 733              	.LC40:
 734 0104 2E2D2D2D 		.ascii	".----.\000"
 734      2D2E00
 735 010b 00       		.space	1
 736              	.LC41:
 737 010c 2D2E2D2E 		.ascii	"-.-.-----.\000"
ARM GAS  C:\Users\laure\AppData\Local\Temp\cckZz5k9.s 			page 19


 737      2D2D2D2D 
 737      2D2E00
 738 0117 00       		.space	1
 739              	.LC42:
 740 0118 2D2E2E2D 		.ascii	"-..-.\000"
 740      2E00
 741 011e 0000     		.space	2
 742              	.LC43:
 743 0120 2D2E2D2D 		.ascii	"-.--.\000"
 743      2E00
 744 0126 0000     		.space	2
 745              	.LC44:
 746 0128 2D2E2D2D 		.ascii	"-.--.-\000"
 746      2E2D00
 747 012f 00       		.space	1
 748              	.LC45:
 749 0130 2E2D2E2E 		.ascii	".-...\000"
 749      2E00
 750 0136 0000     		.space	2
 751              	.LC46:
 752 0138 2D2D2D2E 		.ascii	"---...\000"
 752      2E2E00
 753 013f 00       		.space	1
 754              	.LC47:
 755 0140 2D2E2D2E 		.ascii	"-.-.-.\000"
 755      2D2E00
 756 0147 00       		.space	1
 757              	.LC48:
 758 0148 2E2D2D2D 		.ascii	".---.\000"
 758      2E00
 759 014e 0000     		.space	2
 760              	.LC49:
 761 0150 2E2D2E2D 		.ascii	".-.-.\000"
 761      2E00
 762 0156 0000     		.space	2
 763              	.LC50:
 764 0158 2D2E2E2E 		.ascii	"-....-\000"
 764      2E2D00
 765 015f 00       		.space	1
 766              	.LC51:
 767 0160 2E2E2D2D 		.ascii	"..--.-\000"
 767      2E2D00
 768 0167 00       		.space	1
 769              	.LC52:
 770 0168 2E2D2E2E 		.ascii	".-..-.\000"
 770      2D2E00
 771 016f 00       		.space	1
 772              	.LC53:
 773 0170 2E2E2E2D 		.ascii	"...-..-\000"
 773      2E2E2D00 
 774              	.LC54:
 775 0178 2E2D2D2E 		.ascii	".--.-.\000"
 775      2D2E00
 776 017f 00       		.space	1
 777              	.LC55:
 778 0180 00       		.ascii	"\000"
 779 0181 000000   		.space	3
ARM GAS  C:\Users\laure\AppData\Local\Temp\cckZz5k9.s 			page 20


 780              	.LC56:
 781 0184 2000     		.ascii	" \000"
 782              		.text
 783              	.Letext0:
 784              		.file 2 "c:\\program files (x86)\\cypress\\psoc creator\\4.3\\psoc creator\\import\\gnu\\arm\\5.4.
 785              		.file 3 "c:\\program files (x86)\\cypress\\psoc creator\\4.3\\psoc creator\\import\\gnu\\arm\\5.4.
 786              		.file 4 "c:\\program files (x86)\\cypress\\psoc creator\\4.3\\psoc creator\\import\\gnu\\arm\\5.4.
 787              		.file 5 "Generated_Source\\PSoC5/core_cm3.h"
 788              		.file 6 "<built-in>"