ARM GAS  C:\Users\laure\AppData\Local\Temp\ccBxbU3g.s 			page 1


   1              		.syntax unified
   2              		.cpu cortex-m3
   3              		.fpu softvfp
   4              		.eabi_attribute 20, 1
   5              		.eabi_attribute 21, 1
   6              		.eabi_attribute 23, 3
   7              		.eabi_attribute 24, 1
   8              		.eabi_attribute 25, 1
   9              		.eabi_attribute 26, 1
  10              		.eabi_attribute 30, 1
  11              		.eabi_attribute 34, 1
  12              		.eabi_attribute 18, 4
  13              		.thumb
  14              		.syntax unified
  15              		.file	"main.c"
  16              		.text
  17              	.Ltext0:
  18              		.cfi_sections	.debug_frame
  19              		.section	.text.Pin_SW1_Handler,"ax",%progbits
  20              		.align	2
  21              		.global	Pin_SW1_Handler
  22              		.thumb
  23              		.thumb_func
  24              		.type	Pin_SW1_Handler, %function
  25              	Pin_SW1_Handler:
  26              	.LFB63:
  27              		.file 1 "main.c"
   1:main.c        **** /* ========================================
   2:main.c        ****  *
   3:main.c        ****  * Copyright YOUR COMPANY, THE YEAR
   4:main.c        ****  * All Rights Reserved
   5:main.c        ****  * UNPUBLISHED, LICENSED SOFTWARE.
   6:main.c        ****  *
   7:main.c        ****  * CONFIDENTIAL AND PROPRIETARY INFORMATION
   8:main.c        ****  * WHICH IS THE PROPERTY OF your company.
   9:main.c        ****  *
  10:main.c        ****  * ========================================
  11:main.c        **** */
  12:main.c        **** #include "project.h"
  13:main.c        **** 
  14:main.c        **** CY_ISR( Pin_SW1_Handler )
  15:main.c        **** {
  28              		.loc 1 15 0
  29              		.cfi_startproc
  30              		@ args = 0, pretend = 0, frame = 0
  31              		@ frame_needed = 0, uses_anonymous_args = 0
  32 0000 08B5     		push	{r3, lr}
  33              		.cfi_def_cfa_offset 8
  34              		.cfi_offset 3, -8
  35              		.cfi_offset 14, -4
  16:main.c        ****     Pin_D1_Write( ~Pin_D1_Read() );
  36              		.loc 1 16 0
  37 0002 FFF7FEFF 		bl	Pin_D1_Read
  38              	.LVL0:
  39 0006 C043     		mvns	r0, r0
  40 0008 C0B2     		uxtb	r0, r0
  41 000a FFF7FEFF 		bl	Pin_D1_Write
ARM GAS  C:\Users\laure\AppData\Local\Temp\ccBxbU3g.s 			page 2


  42              	.LVL1:
  17:main.c        ****     CyDelay( 500 );
  43              		.loc 1 17 0
  44 000e 4FF4FA70 		mov	r0, #500
  45 0012 FFF7FEFF 		bl	CyDelay
  46              	.LVL2:
  18:main.c        ****     
  19:main.c        ****     Pin_SW1_ClearInterrupt();
  47              		.loc 1 19 0
  48 0016 FFF7FEFF 		bl	Pin_SW1_ClearInterrupt
  49              	.LVL3:
  50 001a 08BD     		pop	{r3, pc}
  51              		.cfi_endproc
  52              	.LFE63:
  53              		.size	Pin_SW1_Handler, .-Pin_SW1_Handler
  54              		.section	.text.main,"ax",%progbits
  55              		.align	2
  56              		.global	main
  57              		.thumb
  58              		.thumb_func
  59              		.type	main, %function
  60              	main:
  61              	.LFB64:
  20:main.c        **** }
  21:main.c        **** 
  22:main.c        **** int main(void)
  23:main.c        **** {
  62              		.loc 1 23 0
  63              		.cfi_startproc
  64              		@ Volatile: function does not return.
  65              		@ args = 0, pretend = 0, frame = 0
  66              		@ frame_needed = 0, uses_anonymous_args = 0
  67 0000 08B5     		push	{r3, lr}
  68              		.cfi_def_cfa_offset 8
  69              		.cfi_offset 3, -8
  70              		.cfi_offset 14, -4
  24:main.c        ****     CyGlobalIntEnable; /* Enable global interrupts. */
  71              		.loc 1 24 0
  72              		.syntax unified
  73              	@ 24 "main.c" 1
  74 0002 62B6     		CPSIE   i
  75              	@ 0 "" 2
  25:main.c        **** 
  26:main.c        ****     Pin_SW1_Int_StartEx( Pin_SW1_Handler );
  76              		.loc 1 26 0
  77              		.thumb
  78              		.syntax unified
  79 0004 0148     		ldr	r0, .L6
  80 0006 FFF7FEFF 		bl	Pin_SW1_Int_StartEx
  81              	.LVL4:
  82              	.L4:
  83 000a FEE7     		b	.L4
  84              	.L7:
  85              		.align	2
  86              	.L6:
  87 000c 00000000 		.word	Pin_SW1_Handler
  88              		.cfi_endproc
ARM GAS  C:\Users\laure\AppData\Local\Temp\ccBxbU3g.s 			page 3


  89              	.LFE64:
  90              		.size	main, .-main
  91              		.text
  92              	.Letext0:
  93              		.file 2 "c:\\program files (x86)\\cypress\\psoc creator\\4.3\\psoc creator\\import\\gnu\\arm\\5.4.
  94              		.file 3 "c:\\program files (x86)\\cypress\\psoc creator\\4.3\\psoc creator\\import\\gnu\\arm\\5.4.
  95              		.file 4 "Generated_Source\\PSoC5/Pin_D1.h"
  96              		.file 5 "Generated_Source\\PSoC5/CyLib.h"
  97              		.file 6 "Generated_Source\\PSoC5/Pin_SW1.h"
  98              		.file 7 "Generated_Source\\PSoC5/Pin_SW1_Int.h"
  99              		.file 8 "Generated_Source\\PSoC5/core_cm3.h"