ARM GAS  C:\Users\laure\AppData\Local\Temp\ccTww95b.s 			page 1


   1              		.syntax unified
   2              		.cpu cortex-m3
   3              		.fpu softvfp
   4              		.eabi_attribute 20, 1
   5              		.eabi_attribute 21, 1
   6              		.eabi_attribute 23, 3
   7              		.eabi_attribute 24, 1
   8              		.eabi_attribute 25, 1
   9              		.eabi_attribute 26, 1
  10              		.eabi_attribute 30, 4
  11              		.eabi_attribute 34, 1
  12              		.eabi_attribute 18, 4
  13              		.thumb
  14              		.syntax unified
  15              		.file	"cyfitter_cfg.c"
  16              		.text
  17              	.Ltext0:
  18              		.cfi_sections	.debug_frame
  19              		.section	.text.SetAnalogRoutingPumps,"ax",%progbits
  20              		.align	1
  21              		.global	SetAnalogRoutingPumps
  22              		.thumb
  23              		.thumb_func
  24              		.type	SetAnalogRoutingPumps, %function
  25              	SetAnalogRoutingPumps:
  26              	.LFB6:
  27              		.file 1 "Generated_Source\\PSoC5\\cyfitter_cfg.c"
   1:Generated_Source\PSoC5/cyfitter_cfg.c **** 
   2:Generated_Source\PSoC5/cyfitter_cfg.c **** /*******************************************************************************
   3:Generated_Source\PSoC5/cyfitter_cfg.c **** * File Name: cyfitter_cfg.c
   4:Generated_Source\PSoC5/cyfitter_cfg.c **** * 
   5:Generated_Source\PSoC5/cyfitter_cfg.c **** * PSoC Creator  4.3
   6:Generated_Source\PSoC5/cyfitter_cfg.c **** *
   7:Generated_Source\PSoC5/cyfitter_cfg.c **** * Description:
   8:Generated_Source\PSoC5/cyfitter_cfg.c **** * This file contains device initialization code.
   9:Generated_Source\PSoC5/cyfitter_cfg.c **** * Except for the user defined sections in CyClockStartupError(), this file should not be modified.
  10:Generated_Source\PSoC5/cyfitter_cfg.c **** * This file is automatically generated by PSoC Creator.
  11:Generated_Source\PSoC5/cyfitter_cfg.c **** *
  12:Generated_Source\PSoC5/cyfitter_cfg.c **** ********************************************************************************
  13:Generated_Source\PSoC5/cyfitter_cfg.c **** * Copyright (c) 2007-2019 Cypress Semiconductor.  All rights reserved.
  14:Generated_Source\PSoC5/cyfitter_cfg.c **** * You may use this file only in accordance with the license, terms, conditions, 
  15:Generated_Source\PSoC5/cyfitter_cfg.c **** * disclaimers, and limitations in the end user license agreement accompanying 
  16:Generated_Source\PSoC5/cyfitter_cfg.c **** * the software package with which this file was provided.
  17:Generated_Source\PSoC5/cyfitter_cfg.c **** ********************************************************************************/
  18:Generated_Source\PSoC5/cyfitter_cfg.c **** 
  19:Generated_Source\PSoC5/cyfitter_cfg.c **** #include <string.h>
  20:Generated_Source\PSoC5/cyfitter_cfg.c **** #include "cytypes.h"
  21:Generated_Source\PSoC5/cyfitter_cfg.c **** #include "cydevice_trm.h"
  22:Generated_Source\PSoC5/cyfitter_cfg.c **** #include "cyfitter.h"
  23:Generated_Source\PSoC5/cyfitter_cfg.c **** #include "CyLib.h"
  24:Generated_Source\PSoC5/cyfitter_cfg.c **** #include "cyfitter_cfg.h"
  25:Generated_Source\PSoC5/cyfitter_cfg.c **** #include "cyapicallbacks.h"
  26:Generated_Source\PSoC5/cyfitter_cfg.c **** 
  27:Generated_Source\PSoC5/cyfitter_cfg.c **** #define CY_NEED_CYCLOCKSTARTUPERROR 1
  28:Generated_Source\PSoC5/cyfitter_cfg.c **** 
  29:Generated_Source\PSoC5/cyfitter_cfg.c **** 
  30:Generated_Source\PSoC5/cyfitter_cfg.c **** #if defined(__GNUC__) || defined(__ARMCC_VERSION)
ARM GAS  C:\Users\laure\AppData\Local\Temp\ccTww95b.s 			page 2


  31:Generated_Source\PSoC5/cyfitter_cfg.c ****     #define CYPACKED 
  32:Generated_Source\PSoC5/cyfitter_cfg.c ****     #define CYPACKED_ATTR __attribute__ ((packed))
  33:Generated_Source\PSoC5/cyfitter_cfg.c ****     #define CYALIGNED __attribute__ ((aligned))
  34:Generated_Source\PSoC5/cyfitter_cfg.c ****     #define CY_CFG_UNUSED __attribute__ ((unused))
  35:Generated_Source\PSoC5/cyfitter_cfg.c ****     #ifndef CY_CFG_SECTION
  36:Generated_Source\PSoC5/cyfitter_cfg.c ****         #define CY_CFG_SECTION __attribute__ ((section(".psocinit")))
  37:Generated_Source\PSoC5/cyfitter_cfg.c ****     #endif
  38:Generated_Source\PSoC5/cyfitter_cfg.c ****     
  39:Generated_Source\PSoC5/cyfitter_cfg.c ****     #if defined(__ARMCC_VERSION)
  40:Generated_Source\PSoC5/cyfitter_cfg.c ****         #define CY_CFG_MEMORY_BARRIER() __memory_changed()
  41:Generated_Source\PSoC5/cyfitter_cfg.c ****     #else
  42:Generated_Source\PSoC5/cyfitter_cfg.c ****         #define CY_CFG_MEMORY_BARRIER() __sync_synchronize()
  43:Generated_Source\PSoC5/cyfitter_cfg.c ****     #endif
  44:Generated_Source\PSoC5/cyfitter_cfg.c ****     
  45:Generated_Source\PSoC5/cyfitter_cfg.c **** #elif defined(__ICCARM__)
  46:Generated_Source\PSoC5/cyfitter_cfg.c ****     #include <intrinsics.h>
  47:Generated_Source\PSoC5/cyfitter_cfg.c **** 
  48:Generated_Source\PSoC5/cyfitter_cfg.c ****     #define CYPACKED __packed
  49:Generated_Source\PSoC5/cyfitter_cfg.c ****     #define CYPACKED_ATTR 
  50:Generated_Source\PSoC5/cyfitter_cfg.c ****     #define CYALIGNED _Pragma("data_alignment=4")
  51:Generated_Source\PSoC5/cyfitter_cfg.c ****     #define CY_CFG_UNUSED _Pragma("diag_suppress=Pe177")
  52:Generated_Source\PSoC5/cyfitter_cfg.c ****     #define CY_CFG_SECTION _Pragma("location=\".psocinit\"")
  53:Generated_Source\PSoC5/cyfitter_cfg.c ****     
  54:Generated_Source\PSoC5/cyfitter_cfg.c ****     #define CY_CFG_MEMORY_BARRIER() __DMB()
  55:Generated_Source\PSoC5/cyfitter_cfg.c ****     
  56:Generated_Source\PSoC5/cyfitter_cfg.c **** #else
  57:Generated_Source\PSoC5/cyfitter_cfg.c ****     #error Unsupported toolchain
  58:Generated_Source\PSoC5/cyfitter_cfg.c **** #endif
  59:Generated_Source\PSoC5/cyfitter_cfg.c **** 
  60:Generated_Source\PSoC5/cyfitter_cfg.c **** #ifndef CYCODE
  61:Generated_Source\PSoC5/cyfitter_cfg.c ****     #define CYCODE
  62:Generated_Source\PSoC5/cyfitter_cfg.c **** #endif
  63:Generated_Source\PSoC5/cyfitter_cfg.c **** #ifndef CYDATA
  64:Generated_Source\PSoC5/cyfitter_cfg.c ****     #define CYDATA
  65:Generated_Source\PSoC5/cyfitter_cfg.c **** #endif
  66:Generated_Source\PSoC5/cyfitter_cfg.c **** #ifndef CYFAR
  67:Generated_Source\PSoC5/cyfitter_cfg.c ****     #define CYFAR
  68:Generated_Source\PSoC5/cyfitter_cfg.c **** #endif
  69:Generated_Source\PSoC5/cyfitter_cfg.c **** #ifndef CYXDATA
  70:Generated_Source\PSoC5/cyfitter_cfg.c ****     #define CYXDATA
  71:Generated_Source\PSoC5/cyfitter_cfg.c **** #endif
  72:Generated_Source\PSoC5/cyfitter_cfg.c **** 
  73:Generated_Source\PSoC5/cyfitter_cfg.c **** 
  74:Generated_Source\PSoC5/cyfitter_cfg.c **** CY_CFG_UNUSED
  75:Generated_Source\PSoC5/cyfitter_cfg.c **** static void CYMEMZERO(void *s, size_t n);
  76:Generated_Source\PSoC5/cyfitter_cfg.c **** CY_CFG_UNUSED
  77:Generated_Source\PSoC5/cyfitter_cfg.c **** static void CYMEMZERO(void *s, size_t n)
  78:Generated_Source\PSoC5/cyfitter_cfg.c **** {
  79:Generated_Source\PSoC5/cyfitter_cfg.c **** 	(void)memset(s, 0, n);
  80:Generated_Source\PSoC5/cyfitter_cfg.c **** }
  81:Generated_Source\PSoC5/cyfitter_cfg.c **** CY_CFG_UNUSED
  82:Generated_Source\PSoC5/cyfitter_cfg.c **** static void CYCONFIGCPY(void *dest, const void *src, size_t n);
  83:Generated_Source\PSoC5/cyfitter_cfg.c **** CY_CFG_UNUSED
  84:Generated_Source\PSoC5/cyfitter_cfg.c **** static void CYCONFIGCPY(void *dest, const void *src, size_t n)
  85:Generated_Source\PSoC5/cyfitter_cfg.c **** {
  86:Generated_Source\PSoC5/cyfitter_cfg.c **** 	(void)memcpy(dest, src, n);
  87:Generated_Source\PSoC5/cyfitter_cfg.c **** }
ARM GAS  C:\Users\laure\AppData\Local\Temp\ccTww95b.s 			page 3


  88:Generated_Source\PSoC5/cyfitter_cfg.c **** CY_CFG_UNUSED
  89:Generated_Source\PSoC5/cyfitter_cfg.c **** static void CYCONFIGCPYCODE(void *dest, const void *src, size_t n);
  90:Generated_Source\PSoC5/cyfitter_cfg.c **** CY_CFG_UNUSED
  91:Generated_Source\PSoC5/cyfitter_cfg.c **** static void CYCONFIGCPYCODE(void *dest, const void *src, size_t n)
  92:Generated_Source\PSoC5/cyfitter_cfg.c **** {
  93:Generated_Source\PSoC5/cyfitter_cfg.c **** 	(void)memcpy(dest, src, n);
  94:Generated_Source\PSoC5/cyfitter_cfg.c **** }
  95:Generated_Source\PSoC5/cyfitter_cfg.c **** 
  96:Generated_Source\PSoC5/cyfitter_cfg.c **** 
  97:Generated_Source\PSoC5/cyfitter_cfg.c **** 
  98:Generated_Source\PSoC5/cyfitter_cfg.c **** 
  99:Generated_Source\PSoC5/cyfitter_cfg.c **** /* Clock startup error codes                                                   */
 100:Generated_Source\PSoC5/cyfitter_cfg.c **** #define CYCLOCKSTART_NO_ERROR    0u
 101:Generated_Source\PSoC5/cyfitter_cfg.c **** #define CYCLOCKSTART_XTAL_ERROR  1u
 102:Generated_Source\PSoC5/cyfitter_cfg.c **** #define CYCLOCKSTART_32KHZ_ERROR 2u
 103:Generated_Source\PSoC5/cyfitter_cfg.c **** #define CYCLOCKSTART_PLL_ERROR   3u
 104:Generated_Source\PSoC5/cyfitter_cfg.c **** #define CYCLOCKSTART_FLL_ERROR   4u
 105:Generated_Source\PSoC5/cyfitter_cfg.c **** #define CYCLOCKSTART_WCO_ERROR   5u
 106:Generated_Source\PSoC5/cyfitter_cfg.c **** 
 107:Generated_Source\PSoC5/cyfitter_cfg.c **** 
 108:Generated_Source\PSoC5/cyfitter_cfg.c **** #ifdef CY_NEED_CYCLOCKSTARTUPERROR
 109:Generated_Source\PSoC5/cyfitter_cfg.c **** /*******************************************************************************
 110:Generated_Source\PSoC5/cyfitter_cfg.c **** * Function Name: CyClockStartupError
 111:Generated_Source\PSoC5/cyfitter_cfg.c **** ********************************************************************************
 112:Generated_Source\PSoC5/cyfitter_cfg.c **** * Summary:
 113:Generated_Source\PSoC5/cyfitter_cfg.c **** *  If an error is encountered during clock configuration (crystal startup error,
 114:Generated_Source\PSoC5/cyfitter_cfg.c **** *  PLL lock error, etc.), the system will end up here.  Unless reimplemented by
 115:Generated_Source\PSoC5/cyfitter_cfg.c **** *  the customer, this function will stop in an infinite loop.
 116:Generated_Source\PSoC5/cyfitter_cfg.c **** *
 117:Generated_Source\PSoC5/cyfitter_cfg.c **** * Parameters:
 118:Generated_Source\PSoC5/cyfitter_cfg.c **** *   void
 119:Generated_Source\PSoC5/cyfitter_cfg.c **** *
 120:Generated_Source\PSoC5/cyfitter_cfg.c **** * Return:
 121:Generated_Source\PSoC5/cyfitter_cfg.c **** *   void
 122:Generated_Source\PSoC5/cyfitter_cfg.c **** *
 123:Generated_Source\PSoC5/cyfitter_cfg.c **** *******************************************************************************/
 124:Generated_Source\PSoC5/cyfitter_cfg.c **** CY_CFG_UNUSED
 125:Generated_Source\PSoC5/cyfitter_cfg.c **** static void CyClockStartupError(uint8 errorCode);
 126:Generated_Source\PSoC5/cyfitter_cfg.c **** CY_CFG_UNUSED
 127:Generated_Source\PSoC5/cyfitter_cfg.c **** static void CyClockStartupError(uint8 errorCode)
 128:Generated_Source\PSoC5/cyfitter_cfg.c **** {
 129:Generated_Source\PSoC5/cyfitter_cfg.c ****     /* To remove the compiler warning if errorCode not used.                */
 130:Generated_Source\PSoC5/cyfitter_cfg.c ****     errorCode = errorCode;
 131:Generated_Source\PSoC5/cyfitter_cfg.c **** 
 132:Generated_Source\PSoC5/cyfitter_cfg.c ****     /* If we have a clock startup error (bad MHz crystal, PLL lock, etc.),  */
 133:Generated_Source\PSoC5/cyfitter_cfg.c ****     /* we will end up here to allow the customer to implement something to  */
 134:Generated_Source\PSoC5/cyfitter_cfg.c ****     /* deal with the clock condition.                                       */
 135:Generated_Source\PSoC5/cyfitter_cfg.c **** 
 136:Generated_Source\PSoC5/cyfitter_cfg.c **** #ifdef CY_CFG_CLOCK_STARTUP_ERROR_CALLBACK
 137:Generated_Source\PSoC5/cyfitter_cfg.c ****     CY_CFG_Clock_Startup_ErrorCallback();
 138:Generated_Source\PSoC5/cyfitter_cfg.c **** #else
 139:Generated_Source\PSoC5/cyfitter_cfg.c ****     /*  If not using CY_CFG_CLOCK_STARTUP_ERROR_CALLBACK, place your clock startup code here. */
 140:Generated_Source\PSoC5/cyfitter_cfg.c ****     /* `#START CyClockStartupError` */
 141:Generated_Source\PSoC5/cyfitter_cfg.c **** 
 142:Generated_Source\PSoC5/cyfitter_cfg.c **** 
 143:Generated_Source\PSoC5/cyfitter_cfg.c **** 
 144:Generated_Source\PSoC5/cyfitter_cfg.c ****     /* `#END` */
ARM GAS  C:\Users\laure\AppData\Local\Temp\ccTww95b.s 			page 4


 145:Generated_Source\PSoC5/cyfitter_cfg.c **** 
 146:Generated_Source\PSoC5/cyfitter_cfg.c ****     while(1) {}
 147:Generated_Source\PSoC5/cyfitter_cfg.c **** #endif /* CY_CFG_CLOCK_STARTUP_ERROR_CALLBACK */
 148:Generated_Source\PSoC5/cyfitter_cfg.c **** }
 149:Generated_Source\PSoC5/cyfitter_cfg.c **** #endif
 150:Generated_Source\PSoC5/cyfitter_cfg.c **** 
 151:Generated_Source\PSoC5/cyfitter_cfg.c **** /* IOPINS0_0 Address: CYREG_PRT0_DM0 Size (bytes): 8 */
 152:Generated_Source\PSoC5/cyfitter_cfg.c **** #define BS_IOPINS0_0_VAL ((const uint8 CYFAR *)0x48000000u)
 153:Generated_Source\PSoC5/cyfitter_cfg.c **** 
 154:Generated_Source\PSoC5/cyfitter_cfg.c **** /* IOPINS0_7 Address: CYREG_PRT12_DM0 Size (bytes): 8 */
 155:Generated_Source\PSoC5/cyfitter_cfg.c **** #define BS_IOPINS0_7_VAL ((const uint8 CYFAR *)0x48000008u)
 156:Generated_Source\PSoC5/cyfitter_cfg.c **** 
 157:Generated_Source\PSoC5/cyfitter_cfg.c **** /* IOPINS0_8 Address: CYREG_PRT15_DR Size (bytes): 10 */
 158:Generated_Source\PSoC5/cyfitter_cfg.c **** #define BS_IOPINS0_8_VAL ((const uint8 CYFAR *)0x48000010u)
 159:Generated_Source\PSoC5/cyfitter_cfg.c **** 
 160:Generated_Source\PSoC5/cyfitter_cfg.c **** /* IOPINS0_1 Address: CYREG_PRT1_DM0 Size (bytes): 8 */
 161:Generated_Source\PSoC5/cyfitter_cfg.c **** #define BS_IOPINS0_1_VAL ((const uint8 CYFAR *)0x4800001Cu)
 162:Generated_Source\PSoC5/cyfitter_cfg.c **** 
 163:Generated_Source\PSoC5/cyfitter_cfg.c **** /* IOPINS0_2 Address: CYREG_PRT2_DM0 Size (bytes): 8 */
 164:Generated_Source\PSoC5/cyfitter_cfg.c **** #define BS_IOPINS0_2_VAL ((const uint8 CYFAR *)0x48000024u)
 165:Generated_Source\PSoC5/cyfitter_cfg.c **** 
 166:Generated_Source\PSoC5/cyfitter_cfg.c **** /* IOPINS0_3 Address: CYREG_PRT3_DR Size (bytes): 10 */
 167:Generated_Source\PSoC5/cyfitter_cfg.c **** #define BS_IOPINS0_3_VAL ((const uint8 CYFAR *)0x4800002Cu)
 168:Generated_Source\PSoC5/cyfitter_cfg.c **** 
 169:Generated_Source\PSoC5/cyfitter_cfg.c **** 
 170:Generated_Source\PSoC5/cyfitter_cfg.c **** /*******************************************************************************
 171:Generated_Source\PSoC5/cyfitter_cfg.c **** * Function Name: ClockSetup
 172:Generated_Source\PSoC5/cyfitter_cfg.c **** ********************************************************************************
 173:Generated_Source\PSoC5/cyfitter_cfg.c **** *
 174:Generated_Source\PSoC5/cyfitter_cfg.c **** * Summary:
 175:Generated_Source\PSoC5/cyfitter_cfg.c **** *  Performs the initialization of all of the clocks in the device based on the
 176:Generated_Source\PSoC5/cyfitter_cfg.c **** *  settings in the Clock tab of the DWR.  This includes enabling the requested
 177:Generated_Source\PSoC5/cyfitter_cfg.c **** *  clocks and setting the necessary dividers to produce the desired frequency. 
 178:Generated_Source\PSoC5/cyfitter_cfg.c **** *
 179:Generated_Source\PSoC5/cyfitter_cfg.c **** * Parameters:
 180:Generated_Source\PSoC5/cyfitter_cfg.c **** *  void
 181:Generated_Source\PSoC5/cyfitter_cfg.c **** *
 182:Generated_Source\PSoC5/cyfitter_cfg.c **** * Return:
 183:Generated_Source\PSoC5/cyfitter_cfg.c **** *  void
 184:Generated_Source\PSoC5/cyfitter_cfg.c **** *
 185:Generated_Source\PSoC5/cyfitter_cfg.c **** *******************************************************************************/
 186:Generated_Source\PSoC5/cyfitter_cfg.c **** static void ClockSetup(void);
 187:Generated_Source\PSoC5/cyfitter_cfg.c **** static void ClockSetup(void)
 188:Generated_Source\PSoC5/cyfitter_cfg.c **** {
 189:Generated_Source\PSoC5/cyfitter_cfg.c **** 	uint32 timeout;
 190:Generated_Source\PSoC5/cyfitter_cfg.c **** 	uint8 pllLock;
 191:Generated_Source\PSoC5/cyfitter_cfg.c **** 
 192:Generated_Source\PSoC5/cyfitter_cfg.c **** 
 193:Generated_Source\PSoC5/cyfitter_cfg.c **** 	/* Configure ILO based on settings from Clock DWR */
 194:Generated_Source\PSoC5/cyfitter_cfg.c **** 	CY_SET_XTND_REG8((void CYFAR *)(CYREG_SLOWCLK_ILO_CR0), 0x02u);
 195:Generated_Source\PSoC5/cyfitter_cfg.c **** 	CY_SET_XTND_REG8((void CYFAR *)(CYREG_CLKDIST_CR), 0x08u);
 196:Generated_Source\PSoC5/cyfitter_cfg.c **** 
 197:Generated_Source\PSoC5/cyfitter_cfg.c **** 	/* Configure IMO based on settings from Clock DWR */
 198:Generated_Source\PSoC5/cyfitter_cfg.c **** 	CY_SET_XTND_REG8((void CYFAR *)(CYREG_FASTCLK_IMO_CR), 0x03u);
 199:Generated_Source\PSoC5/cyfitter_cfg.c **** 	CY_SET_XTND_REG8((void CYFAR *)(CYREG_IMO_TR1), (CY_GET_XTND_REG8((void CYFAR *)CYREG_FLSHID_CUST_
 200:Generated_Source\PSoC5/cyfitter_cfg.c **** 
 201:Generated_Source\PSoC5/cyfitter_cfg.c **** 	/* Configure PLL based on settings from Clock DWR */
ARM GAS  C:\Users\laure\AppData\Local\Temp\ccTww95b.s 			page 5


 202:Generated_Source\PSoC5/cyfitter_cfg.c **** 	CY_SET_XTND_REG16((void CYFAR *)(CYREG_FASTCLK_PLL_P), 0x0008u);
 203:Generated_Source\PSoC5/cyfitter_cfg.c **** 	CY_SET_XTND_REG16((void CYFAR *)(CYREG_FASTCLK_PLL_CFG0), 0x1251u);
 204:Generated_Source\PSoC5/cyfitter_cfg.c **** 	/* Wait up to 250us for the PLL to lock */
 205:Generated_Source\PSoC5/cyfitter_cfg.c **** 	pllLock = 0u;
 206:Generated_Source\PSoC5/cyfitter_cfg.c **** 	for (timeout = 250u / 10u; (timeout > 0u) && (pllLock != 0x03u); timeout--)
 207:Generated_Source\PSoC5/cyfitter_cfg.c **** 	{ 
 208:Generated_Source\PSoC5/cyfitter_cfg.c **** 		pllLock = 0x03u & ((uint8)((uint8)pllLock << 1) | ((CY_GET_XTND_REG8((void CYFAR *)CYREG_FASTCLK_
 209:Generated_Source\PSoC5/cyfitter_cfg.c **** 		CyDelayCycles(10u * 48u); /* Delay 10us based on 48MHz clock */
 210:Generated_Source\PSoC5/cyfitter_cfg.c **** 	}
 211:Generated_Source\PSoC5/cyfitter_cfg.c **** 	/* If we ran out of time the PLL didn't lock so go to the error function */
 212:Generated_Source\PSoC5/cyfitter_cfg.c **** 	if (timeout == 0u)
 213:Generated_Source\PSoC5/cyfitter_cfg.c **** 	{
 214:Generated_Source\PSoC5/cyfitter_cfg.c **** 		CyClockStartupError(CYCLOCKSTART_PLL_ERROR);
 215:Generated_Source\PSoC5/cyfitter_cfg.c **** 	}
 216:Generated_Source\PSoC5/cyfitter_cfg.c **** 
 217:Generated_Source\PSoC5/cyfitter_cfg.c **** 	/* Configure Bus/Master Clock based on settings from Clock DWR */
 218:Generated_Source\PSoC5/cyfitter_cfg.c **** 	CY_SET_XTND_REG16((void CYFAR *)(CYREG_CLKDIST_MSTR0), 0x0100u);
 219:Generated_Source\PSoC5/cyfitter_cfg.c **** 	CY_SET_XTND_REG8((void CYFAR *)(CYREG_CLKDIST_MSTR0), 0x07u);
 220:Generated_Source\PSoC5/cyfitter_cfg.c **** 	CY_SET_XTND_REG8((void CYFAR *)(CYREG_CLKDIST_BCFG0), 0x00u);
 221:Generated_Source\PSoC5/cyfitter_cfg.c **** 	CY_SET_XTND_REG8((void CYFAR *)(CYREG_CLKDIST_BCFG2), 0x48u);
 222:Generated_Source\PSoC5/cyfitter_cfg.c **** 	CY_SET_XTND_REG8((void CYFAR *)(CYREG_CLKDIST_MSTR0), 0x00u);
 223:Generated_Source\PSoC5/cyfitter_cfg.c **** 	CY_SET_XTND_REG8((void CYFAR *)(CYREG_CLKDIST_LD), 0x02u);
 224:Generated_Source\PSoC5/cyfitter_cfg.c **** }
 225:Generated_Source\PSoC5/cyfitter_cfg.c **** 
 226:Generated_Source\PSoC5/cyfitter_cfg.c **** 
 227:Generated_Source\PSoC5/cyfitter_cfg.c **** /* Analog API Functions */
 228:Generated_Source\PSoC5/cyfitter_cfg.c **** 
 229:Generated_Source\PSoC5/cyfitter_cfg.c **** 
 230:Generated_Source\PSoC5/cyfitter_cfg.c **** /*******************************************************************************
 231:Generated_Source\PSoC5/cyfitter_cfg.c **** * Function Name: AnalogSetDefault
 232:Generated_Source\PSoC5/cyfitter_cfg.c **** ********************************************************************************
 233:Generated_Source\PSoC5/cyfitter_cfg.c **** *
 234:Generated_Source\PSoC5/cyfitter_cfg.c **** * Summary:
 235:Generated_Source\PSoC5/cyfitter_cfg.c **** *  Sets up the analog portions of the chip to default values based on chip
 236:Generated_Source\PSoC5/cyfitter_cfg.c **** *  configuration options from the project.
 237:Generated_Source\PSoC5/cyfitter_cfg.c **** *
 238:Generated_Source\PSoC5/cyfitter_cfg.c **** * Parameters:
 239:Generated_Source\PSoC5/cyfitter_cfg.c **** *  void
 240:Generated_Source\PSoC5/cyfitter_cfg.c **** *
 241:Generated_Source\PSoC5/cyfitter_cfg.c **** * Return:
 242:Generated_Source\PSoC5/cyfitter_cfg.c **** *  void
 243:Generated_Source\PSoC5/cyfitter_cfg.c **** *
 244:Generated_Source\PSoC5/cyfitter_cfg.c **** *******************************************************************************/
 245:Generated_Source\PSoC5/cyfitter_cfg.c **** static void AnalogSetDefault(void);
 246:Generated_Source\PSoC5/cyfitter_cfg.c **** static void AnalogSetDefault(void)
 247:Generated_Source\PSoC5/cyfitter_cfg.c **** {
 248:Generated_Source\PSoC5/cyfitter_cfg.c **** 	uint8 bg_xover_inl_trim = CY_GET_XTND_REG8((void CYFAR *)(CYREG_FLSHID_MFG_CFG_BG_XOVER_INL_TRIM +
 249:Generated_Source\PSoC5/cyfitter_cfg.c **** 	CY_SET_XTND_REG8((void CYFAR *)(CYREG_BG_DFT0), (bg_xover_inl_trim & 0x07u));
 250:Generated_Source\PSoC5/cyfitter_cfg.c **** 	CY_SET_XTND_REG8((void CYFAR *)(CYREG_BG_DFT1), ((bg_xover_inl_trim >> 4) & 0x0Fu));
 251:Generated_Source\PSoC5/cyfitter_cfg.c **** 	CY_SET_XTND_REG8((void CYFAR *)CYREG_PUMP_CR0, 0x44u);
 252:Generated_Source\PSoC5/cyfitter_cfg.c **** }
 253:Generated_Source\PSoC5/cyfitter_cfg.c **** 
 254:Generated_Source\PSoC5/cyfitter_cfg.c **** 
 255:Generated_Source\PSoC5/cyfitter_cfg.c **** /*******************************************************************************
 256:Generated_Source\PSoC5/cyfitter_cfg.c **** * Function Name: SetAnalogRoutingPumps
 257:Generated_Source\PSoC5/cyfitter_cfg.c **** ********************************************************************************
 258:Generated_Source\PSoC5/cyfitter_cfg.c **** *
ARM GAS  C:\Users\laure\AppData\Local\Temp\ccTww95b.s 			page 6


 259:Generated_Source\PSoC5/cyfitter_cfg.c **** * Summary:
 260:Generated_Source\PSoC5/cyfitter_cfg.c **** * Enables or disables the analog pumps feeding analog routing switches.
 261:Generated_Source\PSoC5/cyfitter_cfg.c **** * Intended to be called at startup, based on the Vdda system configuration;
 262:Generated_Source\PSoC5/cyfitter_cfg.c **** * may be called during operation when the user informs us that the Vdda voltage
 263:Generated_Source\PSoC5/cyfitter_cfg.c **** * crossed the pump threshold.
 264:Generated_Source\PSoC5/cyfitter_cfg.c **** *
 265:Generated_Source\PSoC5/cyfitter_cfg.c **** * Parameters:
 266:Generated_Source\PSoC5/cyfitter_cfg.c **** *  enabled - 1 to enable the pumps, 0 to disable the pumps
 267:Generated_Source\PSoC5/cyfitter_cfg.c **** *
 268:Generated_Source\PSoC5/cyfitter_cfg.c **** * Return:
 269:Generated_Source\PSoC5/cyfitter_cfg.c **** *  void
 270:Generated_Source\PSoC5/cyfitter_cfg.c **** *
 271:Generated_Source\PSoC5/cyfitter_cfg.c **** *******************************************************************************/
 272:Generated_Source\PSoC5/cyfitter_cfg.c **** void SetAnalogRoutingPumps(uint8 enabled)
 273:Generated_Source\PSoC5/cyfitter_cfg.c **** {
  28              		.loc 1 273 0
  29              		.cfi_startproc
  30              		@ args = 0, pretend = 0, frame = 0
  31              		@ frame_needed = 0, uses_anonymous_args = 0
  32              		@ link register save eliminated.
  33              	.LVL0:
 274:Generated_Source\PSoC5/cyfitter_cfg.c **** 	uint8 regValue = CY_GET_XTND_REG8((void CYFAR *)CYREG_PUMP_CR0);
  34              		.loc 1 274 0
  35 0000 024A     		ldr	r2, .L2
  36 0002 1378     		ldrb	r3, [r2]	@ zero_extendqisi2
  37 0004 DBB2     		uxtb	r3, r3
  38              	.LVL1:
 275:Generated_Source\PSoC5/cyfitter_cfg.c **** 	if (enabled != 0u)
 276:Generated_Source\PSoC5/cyfitter_cfg.c **** 	{
 277:Generated_Source\PSoC5/cyfitter_cfg.c **** 		regValue |= 0x00u;
 278:Generated_Source\PSoC5/cyfitter_cfg.c **** 	}
 279:Generated_Source\PSoC5/cyfitter_cfg.c **** 	else
 280:Generated_Source\PSoC5/cyfitter_cfg.c **** 	{
 281:Generated_Source\PSoC5/cyfitter_cfg.c **** 		regValue &= (uint8)~0x00u;
 282:Generated_Source\PSoC5/cyfitter_cfg.c **** 	}
 283:Generated_Source\PSoC5/cyfitter_cfg.c **** 	CY_SET_XTND_REG8((void CYFAR *)CYREG_PUMP_CR0, regValue);
  39              		.loc 1 283 0
  40 0006 1370     		strb	r3, [r2]
  41 0008 7047     		bx	lr
  42              	.L3:
  43 000a 00BF     		.align	2
  44              	.L2:
  45 000c 76580040 		.word	1073764470
  46              		.cfi_endproc
  47              	.LFE6:
  48              		.size	SetAnalogRoutingPumps, .-SetAnalogRoutingPumps
  49              		.section	.text.cyfitter_cfg,"ax",%progbits
  50              		.align	1
  51              		.global	cyfitter_cfg
  52              		.thumb
  53              		.thumb_func
  54              		.type	cyfitter_cfg, %function
  55              	cyfitter_cfg:
  56              	.LFB7:
 284:Generated_Source\PSoC5/cyfitter_cfg.c **** }
 285:Generated_Source\PSoC5/cyfitter_cfg.c **** 
 286:Generated_Source\PSoC5/cyfitter_cfg.c **** 
ARM GAS  C:\Users\laure\AppData\Local\Temp\ccTww95b.s 			page 7


 287:Generated_Source\PSoC5/cyfitter_cfg.c **** 
 288:Generated_Source\PSoC5/cyfitter_cfg.c **** 
 289:Generated_Source\PSoC5/cyfitter_cfg.c **** /*******************************************************************************
 290:Generated_Source\PSoC5/cyfitter_cfg.c **** * Function Name: cyfitter_cfg
 291:Generated_Source\PSoC5/cyfitter_cfg.c **** ********************************************************************************
 292:Generated_Source\PSoC5/cyfitter_cfg.c **** * Summary:
 293:Generated_Source\PSoC5/cyfitter_cfg.c **** *  This function is called by the start-up code for the selected device. It
 294:Generated_Source\PSoC5/cyfitter_cfg.c **** *  performs all of the necessary device configuration based on the design
 295:Generated_Source\PSoC5/cyfitter_cfg.c **** *  settings.  This includes settings from the Design Wide Resources (DWR) such
 296:Generated_Source\PSoC5/cyfitter_cfg.c **** *  as Clocks and Pins as well as any component configuration that is necessary.
 297:Generated_Source\PSoC5/cyfitter_cfg.c **** *
 298:Generated_Source\PSoC5/cyfitter_cfg.c **** * Parameters:
 299:Generated_Source\PSoC5/cyfitter_cfg.c **** *   void
 300:Generated_Source\PSoC5/cyfitter_cfg.c **** *
 301:Generated_Source\PSoC5/cyfitter_cfg.c **** * Return:
 302:Generated_Source\PSoC5/cyfitter_cfg.c **** *   void
 303:Generated_Source\PSoC5/cyfitter_cfg.c **** *
 304:Generated_Source\PSoC5/cyfitter_cfg.c **** *******************************************************************************/
 305:Generated_Source\PSoC5/cyfitter_cfg.c **** 
 306:Generated_Source\PSoC5/cyfitter_cfg.c **** void cyfitter_cfg(void)
 307:Generated_Source\PSoC5/cyfitter_cfg.c **** {
  57              		.loc 1 307 0
  58              		.cfi_startproc
  59              		@ args = 0, pretend = 0, frame = 0
  60              		@ frame_needed = 0, uses_anonymous_args = 0
  61 0000 70B5     		push	{r4, r5, r6, lr}
  62              		.cfi_def_cfa_offset 16
  63              		.cfi_offset 4, -16
  64              		.cfi_offset 5, -12
  65              		.cfi_offset 6, -8
  66              		.cfi_offset 14, -4
 308:Generated_Source\PSoC5/cyfitter_cfg.c **** #ifdef CYGlobalIntDisable
 309:Generated_Source\PSoC5/cyfitter_cfg.c **** 	/* Disable interrupts by default. Let user enable if/when they want. */
 310:Generated_Source\PSoC5/cyfitter_cfg.c **** 	CYGlobalIntDisable
  67              		.loc 1 310 0
  68              		.syntax unified
  69              	@ 310 "Generated_Source\PSoC5\cyfitter_cfg.c" 1
  70 0002 72B6     		CPSID   i
  71              	@ 0 "" 2
 311:Generated_Source\PSoC5/cyfitter_cfg.c **** #endif
 312:Generated_Source\PSoC5/cyfitter_cfg.c **** 
 313:Generated_Source\PSoC5/cyfitter_cfg.c **** 	/* Enable/Disable Debug functionality based on settings from System DWR */
 314:Generated_Source\PSoC5/cyfitter_cfg.c **** 	CY_SET_XTND_REG8((void CYFAR *)CYREG_MLOGIC_DEBUG, (CY_GET_XTND_REG8((void CYFAR *)CYREG_MLOGIC_DE
  72              		.loc 1 314 0
  73              		.thumb
  74              		.syntax unified
  75 0004 4A4A     		ldr	r2, .L15
  76              	.LBB42:
  77              	.LBB43:
 315:Generated_Source\PSoC5/cyfitter_cfg.c **** 
 316:Generated_Source\PSoC5/cyfitter_cfg.c **** 	{
 317:Generated_Source\PSoC5/cyfitter_cfg.c **** 
 318:Generated_Source\PSoC5/cyfitter_cfg.c **** 		CYPACKED typedef struct {
 319:Generated_Source\PSoC5/cyfitter_cfg.c **** 			void CYFAR *address;
 320:Generated_Source\PSoC5/cyfitter_cfg.c **** 			uint16 size;
 321:Generated_Source\PSoC5/cyfitter_cfg.c **** 		} CYPACKED_ATTR cfg_memset_t;
 322:Generated_Source\PSoC5/cyfitter_cfg.c **** 
ARM GAS  C:\Users\laure\AppData\Local\Temp\ccTww95b.s 			page 8


 323:Generated_Source\PSoC5/cyfitter_cfg.c **** 		static const cfg_memset_t CYCODE cfg_memset_list[] = {
 324:Generated_Source\PSoC5/cyfitter_cfg.c **** 			/* address, size */
 325:Generated_Source\PSoC5/cyfitter_cfg.c **** 			{(void CYFAR *)(CYREG_PRT4_DR), 48u},
 326:Generated_Source\PSoC5/cyfitter_cfg.c **** 			{(void CYFAR *)(CYDEV_UCFG_B0_P0_U0_BASE), 4096u},
 327:Generated_Source\PSoC5/cyfitter_cfg.c **** 			{(void CYFAR *)(CYDEV_UCFG_B1_P2_U0_BASE), 2048u},
 328:Generated_Source\PSoC5/cyfitter_cfg.c **** 			{(void CYFAR *)(CYDEV_UCFG_DSI0_BASE), 2560u},
 329:Generated_Source\PSoC5/cyfitter_cfg.c **** 			{(void CYFAR *)(CYDEV_UCFG_DSI12_BASE), 512u},
 330:Generated_Source\PSoC5/cyfitter_cfg.c **** 			{(void CYFAR *)(CYREG_BCTL0_MDCLK_EN), 32u},
 331:Generated_Source\PSoC5/cyfitter_cfg.c **** 		};
 332:Generated_Source\PSoC5/cyfitter_cfg.c **** 
 333:Generated_Source\PSoC5/cyfitter_cfg.c **** 		uint8 CYDATA i;
 334:Generated_Source\PSoC5/cyfitter_cfg.c **** 
 335:Generated_Source\PSoC5/cyfitter_cfg.c **** 		/* Zero out critical memory blocks before beginning configuration */
 336:Generated_Source\PSoC5/cyfitter_cfg.c **** 		for (i = 0u; i < (sizeof(cfg_memset_list)/sizeof(cfg_memset_list[0])); i++)
 337:Generated_Source\PSoC5/cyfitter_cfg.c **** 		{
 338:Generated_Source\PSoC5/cyfitter_cfg.c **** 			const cfg_memset_t CYCODE * CYDATA ms = &cfg_memset_list[i];
 339:Generated_Source\PSoC5/cyfitter_cfg.c **** 			CYMEMZERO(ms->address, (size_t)(uint32)(ms->size));
  78              		.loc 1 339 0
  79 0006 4B4D     		ldr	r5, .L15+4
  80              	.LBE43:
  81              	.LBE42:
 314:Generated_Source\PSoC5/cyfitter_cfg.c **** 
  82              		.loc 1 314 0
  83 0008 1378     		ldrb	r3, [r2]	@ zero_extendqisi2
  84 000a 0024     		movs	r4, #0
  85 000c 43F00403 		orr	r3, r3, #4
  86 0010 1370     		strb	r3, [r2]
  87              	.LVL2:
  88              	.LBB47:
  89              	.LBB46:
  90              		.loc 1 339 0
  91 0012 0626     		movs	r6, #6
  92              	.LVL3:
  93              	.L5:
  94              		.loc 1 339 0 is_stmt 0 discriminator 3
  95 0014 06FB0453 		mla	r3, r6, r4, r5
  96              	.LBB44:
  97              	.LBB45:
  79:Generated_Source\PSoC5/cyfitter_cfg.c **** }
  98              		.loc 1 79 0 is_stmt 1 discriminator 3
  99 0018 0021     		movs	r1, #0
 100 001a 9A88     		ldrh	r2, [r3, #4]	@ unaligned
 101 001c 1868     		ldr	r0, [r3]	@ unaligned
 102 001e 0134     		adds	r4, r4, #1
 103              	.LVL4:
 104 0020 FFF7FEFF 		bl	memset
 105              	.LVL5:
 106              	.LBE45:
 107              	.LBE44:
 108              	.LBE46:
 336:Generated_Source\PSoC5/cyfitter_cfg.c **** 		{
 109              		.loc 1 336 0 discriminator 3
 110 0024 062C     		cmp	r4, #6
 111 0026 F5D1     		bne	.L5
 340:Generated_Source\PSoC5/cyfitter_cfg.c **** 		}
 341:Generated_Source\PSoC5/cyfitter_cfg.c **** 
 342:Generated_Source\PSoC5/cyfitter_cfg.c **** 		/* Enable digital routing */
ARM GAS  C:\Users\laure\AppData\Local\Temp\ccTww95b.s 			page 9


 343:Generated_Source\PSoC5/cyfitter_cfg.c **** 		CY_SET_XTND_REG8((void CYFAR *)CYREG_BCTL0_BANK_CTL, CY_GET_XTND_REG8((void CYFAR *)CYREG_BCTL0_B
 112              		.loc 1 343 0
 113 0028 434A     		ldr	r2, .L15+8
 114              	.LBE47:
 115              	.LBB48:
 116              	.LBB49:
  86:Generated_Source\PSoC5/cyfitter_cfg.c **** }
 117              		.loc 1 86 0
 118 002a 444C     		ldr	r4, .L15+12
 119              	.LVL6:
 120              	.LBE49:
 121              	.LBE48:
 122              	.LBB51:
 123              		.loc 1 343 0
 124 002c 1378     		ldrb	r3, [r2]	@ zero_extendqisi2
 125              	.LBE51:
 126              	.LBB52:
 127              	.LBB53:
 208:Generated_Source\PSoC5/cyfitter_cfg.c **** 		CyDelayCycles(10u * 48u); /* Delay 10us based on 48MHz clock */
 128              		.loc 1 208 0
 129 002e 444E     		ldr	r6, .L15+16
 130              	.LBE53:
 131              	.LBE52:
 132              	.LBB58:
 133              		.loc 1 343 0
 134 0030 43F00203 		orr	r3, r3, #2
 135 0034 1370     		strb	r3, [r2]
 344:Generated_Source\PSoC5/cyfitter_cfg.c **** 		CY_SET_XTND_REG8((void CYFAR *)CYREG_BCTL1_BANK_CTL, CY_GET_XTND_REG8((void CYFAR *)CYREG_BCTL1_B
 136              		.loc 1 344 0
 137 0036 137C     		ldrb	r3, [r2, #16]	@ zero_extendqisi2
 138              	.LBE58:
 139              	.LBB59:
 140              	.LBB54:
 203:Generated_Source\PSoC5/cyfitter_cfg.c **** 	/* Wait up to 250us for the PLL to lock */
 141              		.loc 1 203 0
 142 0038 1925     		movs	r5, #25
 143              	.LBE54:
 144              	.LBE59:
 145              	.LBB60:
 146              		.loc 1 344 0
 147 003a 43F00203 		orr	r3, r3, #2
 148 003e 1374     		strb	r3, [r2, #16]
 149              	.LVL7:
 150              	.LBE60:
 151              	.LBB61:
 152              	.LBB62:
  86:Generated_Source\PSoC5/cyfitter_cfg.c **** }
 153              		.loc 1 86 0
 154 0040 02F17F42 		add	r2, r2, #-16777216
 155 0044 02F1FF12 		add	r2, r2, #16711935
 156 0048 4FF09043 		mov	r3, #1207959552
 157 004c 03CB     		ldmia	r3!, {r0, r1}
 158 004e 1060     		str	r0, [r2]	@ unaligned
 159 0050 5160     		str	r1, [r2, #4]	@ unaligned
 160              	.LVL8:
 161              	.LBE62:
 162              	.LBE61:
ARM GAS  C:\Users\laure\AppData\Local\Temp\ccTww95b.s 			page 10


 163              	.LBB63:
 164              	.LBB64:
 165 0052 03CB     		ldmia	r3!, {r0, r1}
 166 0054 C2F8C000 		str	r0, [r2, #192]	@ unaligned
 167 0058 C2F8C410 		str	r1, [r2, #196]	@ unaligned
 168              	.LVL9:
 169              	.LBE64:
 170              	.LBE63:
 171              	.LBB65:
 172              	.LBB50:
 173 005c 93E80700 		ldmia	r3, {r0, r1, r2}
 174 0060 03C4     		stmia	r4!, {r0, r1}
 175 0062 2280     		strh	r2, [r4]	@ movhi
 176              	.LVL10:
 177              	.LBE50:
 178              	.LBE65:
 179              	.LBB66:
 180              	.LBB67:
 181 0064 374A     		ldr	r2, .L15+20
 182 0066 0C33     		adds	r3, r3, #12
 183 0068 03CB     		ldmia	r3!, {r0, r1}
 184 006a 1060     		str	r0, [r2]	@ unaligned
 185 006c 5160     		str	r1, [r2, #4]	@ unaligned
 186              	.LVL11:
 187              	.LBE67:
 188              	.LBE66:
 189              	.LBB68:
 190              	.LBB69:
 191 006e 03CB     		ldmia	r3!, {r0, r1}
 192              	.LBE69:
 193              	.LBE68:
 194              	.LBB71:
 195              	.LBB72:
 196 0070 C83C     		subs	r4, r4, #200
 197              	.LBE72:
 198              	.LBE71:
 199              	.LBB74:
 200              	.LBB70:
 201 0072 1061     		str	r0, [r2, #16]	@ unaligned
 202 0074 5161     		str	r1, [r2, #20]	@ unaligned
 203              	.LVL12:
 204              	.LBE70:
 205              	.LBE74:
 206              	.LBB75:
 207              	.LBB73:
 208 0076 93E80700 		ldmia	r3, {r0, r1, r2}
 209 007a 03C4     		stmia	r4!, {r0, r1}
 210 007c 2280     		strh	r2, [r4]	@ movhi
 211              	.LVL13:
 212              	.LBE73:
 213              	.LBE75:
 345:Generated_Source\PSoC5/cyfitter_cfg.c **** 	}
 346:Generated_Source\PSoC5/cyfitter_cfg.c **** 
 347:Generated_Source\PSoC5/cyfitter_cfg.c **** 
 348:Generated_Source\PSoC5/cyfitter_cfg.c **** 	/* Perform second pass device configuration. These items must be configured in specific order afte
 349:Generated_Source\PSoC5/cyfitter_cfg.c **** 	CYCONFIGCPY((void CYFAR *)(CYREG_PRT0_DM0), (const void CYFAR *)(BS_IOPINS0_0_VAL), 8u);
 350:Generated_Source\PSoC5/cyfitter_cfg.c **** 	CYCONFIGCPY((void CYFAR *)(CYREG_PRT12_DM0), (const void CYFAR *)(BS_IOPINS0_7_VAL), 8u);
ARM GAS  C:\Users\laure\AppData\Local\Temp\ccTww95b.s 			page 11


 351:Generated_Source\PSoC5/cyfitter_cfg.c **** 	CYCONFIGCPY((void CYFAR *)(CYREG_PRT15_DR), (const void CYFAR *)(BS_IOPINS0_8_VAL), 10u);
 352:Generated_Source\PSoC5/cyfitter_cfg.c **** 	CYCONFIGCPY((void CYFAR *)(CYREG_PRT1_DM0), (const void CYFAR *)(BS_IOPINS0_1_VAL), 8u);
 353:Generated_Source\PSoC5/cyfitter_cfg.c **** 	CYCONFIGCPY((void CYFAR *)(CYREG_PRT2_DM0), (const void CYFAR *)(BS_IOPINS0_2_VAL), 8u);
 354:Generated_Source\PSoC5/cyfitter_cfg.c **** 	CYCONFIGCPY((void CYFAR *)(CYREG_PRT3_DR), (const void CYFAR *)(BS_IOPINS0_3_VAL), 10u);
 355:Generated_Source\PSoC5/cyfitter_cfg.c **** 	/* Switch Boost to the precision bandgap reference from its internal reference */
 356:Generated_Source\PSoC5/cyfitter_cfg.c **** 	CY_SET_REG8((void CYXDATA *)CYREG_BOOST_CR2, (CY_GET_REG8((void CYXDATA *)CYREG_BOOST_CR2) | 0x08u
 214              		.loc 1 356 0
 215 007e 324A     		ldr	r2, .L15+24
 216              	.LBB76:
 217              	.LBB55:
 198:Generated_Source\PSoC5/cyfitter_cfg.c **** 	CY_SET_XTND_REG8((void CYFAR *)(CYREG_IMO_TR1), (CY_GET_XTND_REG8((void CYFAR *)CYREG_FLSHID_CUST_
 218              		.loc 1 198 0
 219 0080 0321     		movs	r1, #3
 220              	.LBE55:
 221              	.LBE76:
 222              		.loc 1 356 0
 223 0082 1378     		ldrb	r3, [r2]	@ zero_extendqisi2
 224              	.LBB77:
 225              	.LBB56:
 205:Generated_Source\PSoC5/cyfitter_cfg.c **** 	for (timeout = 250u / 10u; (timeout > 0u) && (pllLock != 0x03u); timeout--)
 226              		.loc 1 205 0
 227 0084 0024     		movs	r4, #0
 228              	.LBE56:
 229              	.LBE77:
 230              		.loc 1 356 0
 231 0086 43F00803 		orr	r3, r3, #8
 232 008a 1370     		strb	r3, [r2]
 357:Generated_Source\PSoC5/cyfitter_cfg.c **** 
 358:Generated_Source\PSoC5/cyfitter_cfg.c **** 	/* Set Flash Cycles based on max possible frequency in case a glitch occurs during ClockSetup(). *
 359:Generated_Source\PSoC5/cyfitter_cfg.c **** 	CY_SET_XTND_REG8((void CYFAR *)(CYREG_CACHE_CC_CTL), (((CYDEV_INSTRUCT_CACHE_ENABLED) != 0) ? 0x61
 233              		.loc 1 359 0
 234 008c 2F4B     		ldr	r3, .L15+28
 235 008e 6122     		movs	r2, #97
 236 0090 1A70     		strb	r2, [r3]
 237              	.LBB78:
 238              	.LBB57:
 194:Generated_Source\PSoC5/cyfitter_cfg.c **** 	CY_SET_XTND_REG8((void CYFAR *)(CYREG_CLKDIST_CR), 0x08u);
 239              		.loc 1 194 0
 240 0092 0222     		movs	r2, #2
 241 0094 A3F5A063 		sub	r3, r3, #1280
 242 0098 1A70     		strb	r2, [r3]
 195:Generated_Source\PSoC5/cyfitter_cfg.c **** 
 243              		.loc 1 195 0
 244 009a 0822     		movs	r2, #8
 245 009c 4FF04023 		mov	r3, #1073758208
 246 00a0 1A70     		strb	r2, [r3]
 198:Generated_Source\PSoC5/cyfitter_cfg.c **** 	CY_SET_XTND_REG8((void CYFAR *)(CYREG_IMO_TR1), (CY_GET_XTND_REG8((void CYFAR *)CYREG_FLSHID_CUST_
 247              		.loc 1 198 0
 248 00a2 83F80012 		strb	r1, [r3, #512]
 199:Generated_Source\PSoC5/cyfitter_cfg.c **** 
 249              		.loc 1 199 0
 250 00a6 2A4B     		ldr	r3, .L15+32
 251 00a8 2A49     		ldr	r1, .L15+36
 252 00aa 1B78     		ldrb	r3, [r3]	@ zero_extendqisi2
 253 00ac DBB2     		uxtb	r3, r3
 254 00ae 0B70     		strb	r3, [r1]
 202:Generated_Source\PSoC5/cyfitter_cfg.c **** 	CY_SET_XTND_REG16((void CYFAR *)(CYREG_FASTCLK_PLL_CFG0), 0x1251u);
ARM GAS  C:\Users\laure\AppData\Local\Temp\ccTww95b.s 			page 12


 255              		.loc 1 202 0
 256 00b0 294B     		ldr	r3, .L15+40
 257 00b2 1A80     		strh	r2, [r3]	@ movhi
 203:Generated_Source\PSoC5/cyfitter_cfg.c **** 	/* Wait up to 250us for the PLL to lock */
 258              		.loc 1 203 0
 259 00b4 41F25122 		movw	r2, #4689
 260 00b8 23F8022C 		strh	r2, [r3, #-2]	@ movhi
 261              	.LVL14:
 262              	.L7:
 208:Generated_Source\PSoC5/cyfitter_cfg.c **** 		CyDelayCycles(10u * 48u); /* Delay 10us based on 48MHz clock */
 263              		.loc 1 208 0
 264 00bc 3378     		ldrb	r3, [r6]	@ zero_extendqisi2
 209:Generated_Source\PSoC5/cyfitter_cfg.c **** 	}
 265              		.loc 1 209 0
 266 00be 4FF4F070 		mov	r0, #480
 208:Generated_Source\PSoC5/cyfitter_cfg.c **** 		CyDelayCycles(10u * 48u); /* Delay 10us based on 48MHz clock */
 267              		.loc 1 208 0
 268 00c2 03F00103 		and	r3, r3, #1
 269 00c6 43EA4404 		orr	r4, r3, r4, lsl #1
 270              	.LVL15:
 209:Generated_Source\PSoC5/cyfitter_cfg.c **** 	}
 271              		.loc 1 209 0
 272 00ca FFF7FEFF 		bl	CyDelayCycles
 273              	.LVL16:
 206:Generated_Source\PSoC5/cyfitter_cfg.c **** 	{ 
 274              		.loc 1 206 0
 275 00ce 013D     		subs	r5, r5, #1
 276              	.LVL17:
 208:Generated_Source\PSoC5/cyfitter_cfg.c **** 		CyDelayCycles(10u * 48u); /* Delay 10us based on 48MHz clock */
 277              		.loc 1 208 0
 278 00d0 04F00304 		and	r4, r4, #3
 279              	.LVL18:
 206:Generated_Source\PSoC5/cyfitter_cfg.c **** 	{ 
 280              		.loc 1 206 0
 281 00d4 2BD0     		beq	.L6
 282              	.LVL19:
 283 00d6 032C     		cmp	r4, #3
 284 00d8 F0D1     		bne	.L7
 218:Generated_Source\PSoC5/cyfitter_cfg.c **** 	CY_SET_XTND_REG8((void CYFAR *)(CYREG_CLKDIST_MSTR0), 0x07u);
 285              		.loc 1 218 0
 286 00da 204B     		ldr	r3, .L15+44
 287 00dc 4FF48072 		mov	r2, #256
 288 00e0 1A80     		strh	r2, [r3]	@ movhi
 220:Generated_Source\PSoC5/cyfitter_cfg.c **** 	CY_SET_XTND_REG8((void CYFAR *)(CYREG_CLKDIST_BCFG2), 0x48u);
 289              		.loc 1 220 0
 290 00e2 1F49     		ldr	r1, .L15+48
 219:Generated_Source\PSoC5/cyfitter_cfg.c **** 	CY_SET_XTND_REG8((void CYFAR *)(CYREG_CLKDIST_BCFG0), 0x00u);
 291              		.loc 1 219 0
 292 00e4 0722     		movs	r2, #7
 293 00e6 1A70     		strb	r2, [r3]
 221:Generated_Source\PSoC5/cyfitter_cfg.c **** 	CY_SET_XTND_REG8((void CYFAR *)(CYREG_CLKDIST_MSTR0), 0x00u);
 294              		.loc 1 221 0
 295 00e8 4820     		movs	r0, #72
 220:Generated_Source\PSoC5/cyfitter_cfg.c **** 	CY_SET_XTND_REG8((void CYFAR *)(CYREG_CLKDIST_BCFG2), 0x48u);
 296              		.loc 1 220 0
 297 00ea 0022     		movs	r2, #0
 298 00ec 0A70     		strb	r2, [r1]
ARM GAS  C:\Users\laure\AppData\Local\Temp\ccTww95b.s 			page 13


 221:Generated_Source\PSoC5/cyfitter_cfg.c **** 	CY_SET_XTND_REG8((void CYFAR *)(CYREG_CLKDIST_MSTR0), 0x00u);
 299              		.loc 1 221 0
 300 00ee 8870     		strb	r0, [r1, #2]
 222:Generated_Source\PSoC5/cyfitter_cfg.c **** 	CY_SET_XTND_REG8((void CYFAR *)(CYREG_CLKDIST_LD), 0x02u);
 301              		.loc 1 222 0
 302 00f0 1A70     		strb	r2, [r3]
 223:Generated_Source\PSoC5/cyfitter_cfg.c **** }
 303              		.loc 1 223 0
 304 00f2 0222     		movs	r2, #2
 305 00f4 03F8032C 		strb	r2, [r3, #-3]
 306              	.LVL20:
 307              	.LBE57:
 308              	.LBE78:
 360:Generated_Source\PSoC5/cyfitter_cfg.c **** 	/* Setup clocks based on selections from Clock DWR */
 361:Generated_Source\PSoC5/cyfitter_cfg.c **** 	ClockSetup();
 362:Generated_Source\PSoC5/cyfitter_cfg.c **** 	/* Set Flash Cycles based on newly configured 24.00MHz Bus Clock. */
 363:Generated_Source\PSoC5/cyfitter_cfg.c **** 	CY_SET_XTND_REG8((void CYFAR *)(CYREG_CACHE_CC_CTL), (((CYDEV_INSTRUCT_CACHE_ENABLED) != 0) ? 0x81
 309              		.loc 1 363 0
 310 00f8 8122     		movs	r2, #129
 311 00fa 83F8FC27 		strb	r2, [r3, #2044]
 364:Generated_Source\PSoC5/cyfitter_cfg.c **** 	CY_SET_XTND_REG8((void CYFAR *)(CYREG_PANTHER_WAITPIPE), 0x01u);
 312              		.loc 1 364 0
 313 00fe 0122     		movs	r2, #1
 314 0100 03F5F823 		add	r3, r3, #507904
 315 0104 1A70     		strb	r2, [r3]
 316              	.LBB79:
 317              	.LBB80:
 248:Generated_Source\PSoC5/cyfitter_cfg.c **** 	CY_SET_XTND_REG8((void CYFAR *)(CYREG_BG_DFT0), (bg_xover_inl_trim & 0x07u));
 318              		.loc 1 248 0
 319 0106 174B     		ldr	r3, .L15+52
 249:Generated_Source\PSoC5/cyfitter_cfg.c **** 	CY_SET_XTND_REG8((void CYFAR *)(CYREG_BG_DFT1), ((bg_xover_inl_trim >> 4) & 0x0Fu));
 320              		.loc 1 249 0
 321 0108 174A     		ldr	r2, .L15+56
 248:Generated_Source\PSoC5/cyfitter_cfg.c **** 	CY_SET_XTND_REG8((void CYFAR *)(CYREG_BG_DFT0), (bg_xover_inl_trim & 0x07u));
 322              		.loc 1 248 0
 323 010a 1B78     		ldrb	r3, [r3]	@ zero_extendqisi2
 324              	.LBE80:
 325              	.LBE79:
 326              	.LBB82:
 327              	.LBB83:
  86:Generated_Source\PSoC5/cyfitter_cfg.c **** }
 328              		.loc 1 86 0
 329 010c 174C     		ldr	r4, .L15+60
 330              	.LBE83:
 331              	.LBE82:
 332              	.LBB85:
 333              	.LBB81:
 248:Generated_Source\PSoC5/cyfitter_cfg.c **** 	CY_SET_XTND_REG8((void CYFAR *)(CYREG_BG_DFT0), (bg_xover_inl_trim & 0x07u));
 334              		.loc 1 248 0
 335 010e DBB2     		uxtb	r3, r3
 336              	.LVL21:
 249:Generated_Source\PSoC5/cyfitter_cfg.c **** 	CY_SET_XTND_REG8((void CYFAR *)(CYREG_BG_DFT1), ((bg_xover_inl_trim >> 4) & 0x0Fu));
 337              		.loc 1 249 0
 338 0110 03F00701 		and	r1, r3, #7
 250:Generated_Source\PSoC5/cyfitter_cfg.c **** 	CY_SET_XTND_REG8((void CYFAR *)CYREG_PUMP_CR0, 0x44u);
 339              		.loc 1 250 0
 340 0114 1B09     		lsrs	r3, r3, #4
ARM GAS  C:\Users\laure\AppData\Local\Temp\ccTww95b.s 			page 14


 341              	.LVL22:
 249:Generated_Source\PSoC5/cyfitter_cfg.c **** 	CY_SET_XTND_REG8((void CYFAR *)(CYREG_BG_DFT1), ((bg_xover_inl_trim >> 4) & 0x0Fu));
 342              		.loc 1 249 0
 343 0116 1170     		strb	r1, [r2]
 250:Generated_Source\PSoC5/cyfitter_cfg.c **** 	CY_SET_XTND_REG8((void CYFAR *)CYREG_PUMP_CR0, 0x44u);
 344              		.loc 1 250 0
 345 0118 5370     		strb	r3, [r2, #1]
 251:Generated_Source\PSoC5/cyfitter_cfg.c **** }
 346              		.loc 1 251 0
 347 011a 154B     		ldr	r3, .L15+64
 348 011c 4422     		movs	r2, #68
 349 011e 1A70     		strb	r2, [r3]
 350              	.LVL23:
 351              	.LBE81:
 352              	.LBE85:
 353              	.LBB86:
 354              	.LBB84:
  86:Generated_Source\PSoC5/cyfitter_cfg.c **** }
 355              		.loc 1 86 0
 356 0120 A3F5A653 		sub	r3, r3, #5312
 357 0124 163B     		subs	r3, r3, #22
 358 0126 0FCB     		ldmia	r3, {r0, r1, r2, r3}
 359 0128 07C4     		stmia	r4!, {r0, r1, r2}
 360 012a 2380     		strh	r3, [r4]	@ movhi
 361              	.LVL24:
 362 012c 70BD     		pop	{r4, r5, r6, pc}
 363              	.LVL25:
 364              	.L6:
 365 012e FEE7     		b	.L6
 366              	.L16:
 367              		.align	2
 368              	.L15:
 369 0130 E8460040 		.word	1073759976
 370 0134 00000000 		.word	.LANCHOR0
 371 0138 03500140 		.word	1073827843
 372 013c F0510040 		.word	1073762800
 373 0140 25420040 		.word	1073758757
 374 0144 12510040 		.word	1073762578
 375 0148 22430040 		.word	1073759010
 376 014c 00480040 		.word	1073760256
 377 0150 08010049 		.word	1224737032
 378 0154 A1460040 		.word	1073759905
 379 0158 22420040 		.word	1073758754
 380 015c 04400040 		.word	1073758212
 381 0160 06400040 		.word	1073758214
 382 0164 CF010049 		.word	1224737231
 383 0168 6E580040 		.word	1073764462
 384 016c B0430040 		.word	1073759152
 385 0170 76580040 		.word	1073764470
 386              	.LBE84:
 387              	.LBE86:
 388              		.cfi_endproc
 389              	.LFE7:
 390              		.size	cyfitter_cfg, .-cyfitter_cfg
 391              		.section	.rodata
 392              		.set	.LANCHOR0,. + 0
 393              		.type	cfg_memset_list.4992, %object
ARM GAS  C:\Users\laure\AppData\Local\Temp\ccTww95b.s 			page 15


 394              		.size	cfg_memset_list.4992, 36
 395              	cfg_memset_list.4992:
 396 0000 40510040 		.4byte	1073762624
 397 0004 3000     		.2byte	48
 398 0006 00000140 		.4byte	1073807360
 399 000a 0010     		.2byte	4096
 400 000c 00140140 		.4byte	1073812480
 401 0010 0008     		.2byte	2048
 402 0012 00400140 		.4byte	1073823744
 403 0016 000A     		.2byte	2560
 404 0018 004C0140 		.4byte	1073826816
 405 001c 0002     		.2byte	512
 406 001e 00500140 		.4byte	1073827840
 407 0022 2000     		.2byte	32
 408              		.text
 409              	.Letext0:
 410              		.file 2 "c:\\program files (x86)\\cypress\\psoc creator\\4.3\\psoc creator\\import\\gnu\\arm\\5.4.
 411              		.file 3 "Generated_Source\\PSoC5\\cytypes.h"
 412              		.file 4 "Generated_Source\\PSoC5\\CyLib.h"