ARM GAS  C:\Users\laure\AppData\Local\Temp\ccWKtNmQ.s 			page 1


   1              		.syntax unified
   2              		.cpu cortex-m3
   3              		.fpu softvfp
   4              		.eabi_attribute 20, 1
   5              		.eabi_attribute 21, 1
   6              		.eabi_attribute 23, 3
   7              		.eabi_attribute 24, 1
   8              		.eabi_attribute 25, 1
   9              		.eabi_attribute 26, 1
  10              		.eabi_attribute 30, 4
  11              		.eabi_attribute 34, 1
  12              		.eabi_attribute 18, 4
  13              		.thumb
  14              		.syntax unified
  15              		.file	"keypad.c"
  16              		.text
  17              	.Ltext0:
  18              		.cfi_sections	.debug_frame
  19              		.section	.text.keypadInit,"ax",%progbits
  20              		.align	1
  21              		.global	keypadInit
  22              		.thumb
  23              		.thumb_func
  24              		.type	keypadInit, %function
  25              	keypadInit:
  26              	.LFB63:
  27              		.file 1 "keypad.c"
   1:keypad.c      **** /* ========================================
   2:keypad.c      ****  *
   3:keypad.c      ****  * Copyright YOUR COMPANY, THE YEAR
   4:keypad.c      ****  * All Rights Reserved
   5:keypad.c      ****  * UNPUBLISHED, LICENSED SOFTWARE.
   6:keypad.c      ****  *
   7:keypad.c      ****  * CONFIDENTIAL AND PROPRIETARY INFORMATION
   8:keypad.c      ****  * WHICH IS THE PROPERTY OF your company.
   9:keypad.c      ****  *
  10:keypad.c      ****  * ========================================
  11:keypad.c      **** */
  12:keypad.c      **** #include "project.h"
  13:keypad.c      **** 
  14:keypad.c      **** #define KBD_DELAY   5
  15:keypad.c      **** 
  16:keypad.c      **** 
  17:keypad.c      **** void keypadInit (void) {
  28              		.loc 1 17 0
  29              		.cfi_startproc
  30              		@ args = 0, pretend = 0, frame = 0
  31              		@ frame_needed = 0, uses_anonymous_args = 0
  32 0000 08B5     		push	{r3, lr}
  33              		.cfi_def_cfa_offset 8
  34              		.cfi_offset 3, -8
  35              		.cfi_offset 14, -4
  18:keypad.c      ****     COL1_Write(1);
  36              		.loc 1 18 0
  37 0002 0120     		movs	r0, #1
  38 0004 FFF7FEFF 		bl	COL1_Write
  39              	.LVL0:
ARM GAS  C:\Users\laure\AppData\Local\Temp\ccWKtNmQ.s 			page 2


  19:keypad.c      ****     COL2_Write(1);
  40              		.loc 1 19 0
  41 0008 0120     		movs	r0, #1
  42 000a FFF7FEFF 		bl	COL2_Write
  43              	.LVL1:
  20:keypad.c      ****     COL3_Write(1);
  21:keypad.c      **** }
  44              		.loc 1 21 0
  45 000e BDE80840 		pop	{r3, lr}
  46              		.cfi_restore 14
  47              		.cfi_restore 3
  48              		.cfi_def_cfa_offset 0
  20:keypad.c      ****     COL3_Write(1);
  49              		.loc 1 20 0
  50 0012 0120     		movs	r0, #1
  51 0014 FFF7FEBF 		b	COL3_Write
  52              	.LVL2:
  53              		.cfi_endproc
  54              	.LFE63:
  55              		.size	keypadInit, .-keypadInit
  56              		.section	.text.keypadScan,"ax",%progbits
  57              		.align	1
  58              		.global	keypadScan
  59              		.thumb
  60              		.thumb_func
  61              		.type	keypadScan, %function
  62              	keypadScan:
  63              	.LFB64:
  22:keypad.c      **** 
  23:keypad.c      **** uint8_t keypadScan (void) {
  64              		.loc 1 23 0
  65              		.cfi_startproc
  66              		@ args = 0, pretend = 0, frame = 0
  67              		@ frame_needed = 0, uses_anonymous_args = 0
  68 0000 08B5     		push	{r3, lr}
  69              		.cfi_def_cfa_offset 8
  70              		.cfi_offset 3, -8
  71              		.cfi_offset 14, -4
  24:keypad.c      ****     COL1_Write(0);
  72              		.loc 1 24 0
  73 0002 0020     		movs	r0, #0
  74 0004 FFF7FEFF 		bl	COL1_Write
  75              	.LVL3:
  25:keypad.c      ****     CyDelay(KBD_DELAY);
  76              		.loc 1 25 0
  77 0008 0520     		movs	r0, #5
  78 000a FFF7FEFF 		bl	CyDelay
  79              	.LVL4:
  26:keypad.c      ****     if (!ROW0_Read()) {
  80              		.loc 1 26 0
  81 000e FFF7FEFF 		bl	ROW0_Read
  82              	.LVL5:
  83 0012 20B9     		cbnz	r0, .L3
  27:keypad.c      ****         COL1_Write(1);
  84              		.loc 1 27 0
  85 0014 0120     		movs	r0, #1
  86 0016 FFF7FEFF 		bl	COL1_Write
ARM GAS  C:\Users\laure\AppData\Local\Temp\ccWKtNmQ.s 			page 3


  87              	.LVL6:
  28:keypad.c      ****         return('#');
  88              		.loc 1 28 0
  89 001a 2320     		movs	r0, #35
  90 001c 08BD     		pop	{r3, pc}
  91              	.L3:
  29:keypad.c      ****     }
  30:keypad.c      ****     if (!ROW1_Read()) {
  92              		.loc 1 30 0
  93 001e FFF7FEFF 		bl	ROW1_Read
  94              	.LVL7:
  95 0022 20B9     		cbnz	r0, .L5
  31:keypad.c      ****         COL1_Write(1);
  96              		.loc 1 31 0
  97 0024 0120     		movs	r0, #1
  98 0026 FFF7FEFF 		bl	COL1_Write
  99              	.LVL8:
  32:keypad.c      ****         return('9');
 100              		.loc 1 32 0
 101 002a 3920     		movs	r0, #57
 102 002c 08BD     		pop	{r3, pc}
 103              	.L5:
  33:keypad.c      ****     }
  34:keypad.c      ****     if (!ROW2_Read()) {
 104              		.loc 1 34 0
 105 002e FFF7FEFF 		bl	ROW2_Read
 106              	.LVL9:
 107 0032 20B9     		cbnz	r0, .L6
  35:keypad.c      ****         COL1_Write(1);
 108              		.loc 1 35 0
 109 0034 0120     		movs	r0, #1
 110 0036 FFF7FEFF 		bl	COL1_Write
 111              	.LVL10:
  36:keypad.c      ****         return('6');
 112              		.loc 1 36 0
 113 003a 3620     		movs	r0, #54
 114 003c 08BD     		pop	{r3, pc}
 115              	.L6:
  37:keypad.c      ****     }
  38:keypad.c      ****     if (!ROW3_Read()) {
 116              		.loc 1 38 0
 117 003e FFF7FEFF 		bl	ROW3_Read
 118              	.LVL11:
 119 0042 20B9     		cbnz	r0, .L7
  39:keypad.c      ****         COL1_Write(1);
 120              		.loc 1 39 0
 121 0044 0120     		movs	r0, #1
 122 0046 FFF7FEFF 		bl	COL1_Write
 123              	.LVL12:
  40:keypad.c      ****         return('3');
 124              		.loc 1 40 0
 125 004a 3320     		movs	r0, #51
 126 004c 08BD     		pop	{r3, pc}
 127              	.L7:
  41:keypad.c      ****     }
  42:keypad.c      ****     COL1_Write(1);
 128              		.loc 1 42 0
ARM GAS  C:\Users\laure\AppData\Local\Temp\ccWKtNmQ.s 			page 4


 129 004e 0120     		movs	r0, #1
 130 0050 FFF7FEFF 		bl	COL1_Write
 131              	.LVL13:
  43:keypad.c      ****     
  44:keypad.c      ****     COL2_Write(0);
 132              		.loc 1 44 0
 133 0054 0020     		movs	r0, #0
 134 0056 FFF7FEFF 		bl	COL2_Write
 135              	.LVL14:
  45:keypad.c      ****     CyDelay(KBD_DELAY);
 136              		.loc 1 45 0
 137 005a 0520     		movs	r0, #5
 138 005c FFF7FEFF 		bl	CyDelay
 139              	.LVL15:
  46:keypad.c      ****     if (!ROW0_Read()) {
 140              		.loc 1 46 0
 141 0060 FFF7FEFF 		bl	ROW0_Read
 142              	.LVL16:
 143 0064 20B9     		cbnz	r0, .L8
  47:keypad.c      ****         COL2_Write(1);
 144              		.loc 1 47 0
 145 0066 0120     		movs	r0, #1
 146 0068 FFF7FEFF 		bl	COL2_Write
 147              	.LVL17:
  48:keypad.c      ****         return('0');
 148              		.loc 1 48 0
 149 006c 3020     		movs	r0, #48
 150 006e 08BD     		pop	{r3, pc}
 151              	.L8:
  49:keypad.c      ****     }
  50:keypad.c      ****     if (!ROW1_Read()) {
 152              		.loc 1 50 0
 153 0070 FFF7FEFF 		bl	ROW1_Read
 154              	.LVL18:
 155 0074 20B9     		cbnz	r0, .L9
  51:keypad.c      ****         COL2_Write(1);
 156              		.loc 1 51 0
 157 0076 0120     		movs	r0, #1
 158 0078 FFF7FEFF 		bl	COL2_Write
 159              	.LVL19:
  52:keypad.c      ****         return('8');
 160              		.loc 1 52 0
 161 007c 3820     		movs	r0, #56
 162 007e 08BD     		pop	{r3, pc}
 163              	.L9:
  53:keypad.c      ****     }
  54:keypad.c      ****     if (!ROW2_Read()) {
 164              		.loc 1 54 0
 165 0080 FFF7FEFF 		bl	ROW2_Read
 166              	.LVL20:
 167 0084 20B9     		cbnz	r0, .L10
  55:keypad.c      ****         COL2_Write(1);
 168              		.loc 1 55 0
 169 0086 0120     		movs	r0, #1
 170 0088 FFF7FEFF 		bl	COL2_Write
 171              	.LVL21:
  56:keypad.c      ****         return('5');
ARM GAS  C:\Users\laure\AppData\Local\Temp\ccWKtNmQ.s 			page 5


 172              		.loc 1 56 0
 173 008c 3520     		movs	r0, #53
 174 008e 08BD     		pop	{r3, pc}
 175              	.L10:
  57:keypad.c      ****     }
  58:keypad.c      ****     if (!ROW3_Read()) {
 176              		.loc 1 58 0
 177 0090 FFF7FEFF 		bl	ROW3_Read
 178              	.LVL22:
 179 0094 20B9     		cbnz	r0, .L11
  59:keypad.c      ****         COL2_Write(1);
 180              		.loc 1 59 0
 181 0096 0120     		movs	r0, #1
 182 0098 FFF7FEFF 		bl	COL2_Write
 183              	.LVL23:
  60:keypad.c      ****         return('2');
 184              		.loc 1 60 0
 185 009c 3220     		movs	r0, #50
 186 009e 08BD     		pop	{r3, pc}
 187              	.L11:
  61:keypad.c      ****     }
  62:keypad.c      ****     COL2_Write(1);
 188              		.loc 1 62 0
 189 00a0 0120     		movs	r0, #1
 190 00a2 FFF7FEFF 		bl	COL2_Write
 191              	.LVL24:
  63:keypad.c      **** 
  64:keypad.c      ****     COL3_Write(0);
 192              		.loc 1 64 0
 193 00a6 0020     		movs	r0, #0
 194 00a8 FFF7FEFF 		bl	COL3_Write
 195              	.LVL25:
  65:keypad.c      ****     CyDelay(KBD_DELAY);
 196              		.loc 1 65 0
 197 00ac 0520     		movs	r0, #5
 198 00ae FFF7FEFF 		bl	CyDelay
 199              	.LVL26:
  66:keypad.c      ****     if (!ROW0_Read()) {
 200              		.loc 1 66 0
 201 00b2 FFF7FEFF 		bl	ROW0_Read
 202              	.LVL27:
 203 00b6 20B9     		cbnz	r0, .L12
  67:keypad.c      ****         COL3_Write(1);
 204              		.loc 1 67 0
 205 00b8 0120     		movs	r0, #1
 206 00ba FFF7FEFF 		bl	COL3_Write
 207              	.LVL28:
  68:keypad.c      ****         return('*');
 208              		.loc 1 68 0
 209 00be 2A20     		movs	r0, #42
 210 00c0 08BD     		pop	{r3, pc}
 211              	.L12:
  69:keypad.c      ****     }
  70:keypad.c      ****     if (!ROW1_Read()) {
 212              		.loc 1 70 0
 213 00c2 FFF7FEFF 		bl	ROW1_Read
 214              	.LVL29:
ARM GAS  C:\Users\laure\AppData\Local\Temp\ccWKtNmQ.s 			page 6


 215 00c6 20B9     		cbnz	r0, .L13
  71:keypad.c      ****         COL3_Write(1);
 216              		.loc 1 71 0
 217 00c8 0120     		movs	r0, #1
 218 00ca FFF7FEFF 		bl	COL3_Write
 219              	.LVL30:
  72:keypad.c      ****         return('7');
 220              		.loc 1 72 0
 221 00ce 3720     		movs	r0, #55
 222 00d0 08BD     		pop	{r3, pc}
 223              	.L13:
  73:keypad.c      ****     }
  74:keypad.c      ****     if (!ROW2_Read()) {
 224              		.loc 1 74 0
 225 00d2 FFF7FEFF 		bl	ROW2_Read
 226              	.LVL31:
 227 00d6 20B9     		cbnz	r0, .L14
  75:keypad.c      ****         COL3_Write(1);
 228              		.loc 1 75 0
 229 00d8 0120     		movs	r0, #1
 230 00da FFF7FEFF 		bl	COL3_Write
 231              	.LVL32:
  76:keypad.c      ****         return('4');
 232              		.loc 1 76 0
 233 00de 3420     		movs	r0, #52
 234 00e0 08BD     		pop	{r3, pc}
 235              	.L14:
  77:keypad.c      ****     }
  78:keypad.c      ****     if (!ROW3_Read()) {
 236              		.loc 1 78 0
 237 00e2 FFF7FEFF 		bl	ROW3_Read
 238              	.LVL33:
 239 00e6 20B9     		cbnz	r0, .L15
  79:keypad.c      ****         COL3_Write(1);
 240              		.loc 1 79 0
 241 00e8 0120     		movs	r0, #1
 242 00ea FFF7FEFF 		bl	COL3_Write
 243              	.LVL34:
  80:keypad.c      ****         return('1');
 244              		.loc 1 80 0
 245 00ee 3120     		movs	r0, #49
 246 00f0 08BD     		pop	{r3, pc}
 247              	.L15:
  81:keypad.c      ****     }
  82:keypad.c      ****     COL3_Write(1);
 248              		.loc 1 82 0
 249 00f2 0120     		movs	r0, #1
 250 00f4 FFF7FEFF 		bl	COL3_Write
 251              	.LVL35:
  83:keypad.c      ****     
  84:keypad.c      ****     return('z');
 252              		.loc 1 84 0
 253 00f8 7A20     		movs	r0, #122
  85:keypad.c      **** }
 254              		.loc 1 85 0
 255 00fa 08BD     		pop	{r3, pc}
 256              		.cfi_endproc
ARM GAS  C:\Users\laure\AppData\Local\Temp\ccWKtNmQ.s 			page 7


 257              	.LFE64:
 258              		.size	keypadScan, .-keypadScan
 259              		.text
 260              	.Letext0:
 261              		.file 2 "c:\\program files (x86)\\cypress\\psoc creator\\4.3\\psoc creator\\import\\gnu\\arm\\5.4.
 262              		.file 3 "c:\\program files (x86)\\cypress\\psoc creator\\4.3\\psoc creator\\import\\gnu\\arm\\5.4.
 263              		.file 4 "Generated_Source\\PSoC5/COL1.h"
 264              		.file 5 "Generated_Source\\PSoC5/COL2.h"
 265              		.file 6 "Generated_Source\\PSoC5/COL3.h"
 266              		.file 7 "Generated_Source\\PSoC5/CyLib.h"
 267              		.file 8 "Generated_Source\\PSoC5/ROW0.h"
 268              		.file 9 "Generated_Source\\PSoC5/ROW1.h"
 269              		.file 10 "Generated_Source\\PSoC5/ROW2.h"
 270              		.file 11 "Generated_Source\\PSoC5/ROW3.h"
 271              		.file 12 "Generated_Source\\PSoC5/core_cm3.h"