ARM GAS  C:\Users\laure\AppData\Local\Temp\cca487K9.s 			page 1


   1              		.syntax unified
   2              		.cpu cortex-m3
   3              		.fpu softvfp
   4              		.eabi_attribute 20, 1
   5              		.eabi_attribute 21, 1
   6              		.eabi_attribute 23, 3
   7              		.eabi_attribute 24, 1
   8              		.eabi_attribute 25, 1
   9              		.eabi_attribute 26, 1
  10              		.eabi_attribute 30, 4
  11              		.eabi_attribute 34, 1
  12              		.eabi_attribute 18, 4
  13              		.thumb
  14              		.syntax unified
  15              		.file	"lighter.c"
  16              		.text
  17              	.Ltext0:
  18              		.cfi_sections	.debug_frame
  19              		.section	.text.doLine,"ax",%progbits
  20              		.align	1
  21              		.global	doLine
  22              		.thumb
  23              		.thumb_func
  24              		.type	doLine, %function
  25              	doLine:
  26              	.LFB63:
  27              		.file 1 "lighter.c"
   1:lighter.c     **** /* ========================================
   2:lighter.c     ****  *
   3:lighter.c     ****  * Copyright YOUR COMPANY, THE YEAR
   4:lighter.c     ****  * All Rights Reserved
   5:lighter.c     ****  * UNPUBLISHED, LICENSED SOFTWARE.
   6:lighter.c     ****  *
   7:lighter.c     ****  * CONFIDENTIAL AND PROPRIETARY INFORMATION
   8:lighter.c     ****  * WHICH IS THE PROPERTY OF your company.
   9:lighter.c     ****  *
  10:lighter.c     ****  * ========================================
  11:lighter.c     **** */
  12:lighter.c     **** 
  13:lighter.c     **** #include "project.h"
  14:lighter.c     **** 
  15:lighter.c     **** #define LED_DELAY 500
  16:lighter.c     **** 
  17:lighter.c     **** /*
  18:lighter.c     ****    lights on the LEDs one after another then lights off
  19:lighter.c     ****    the LEDs one after another
  20:lighter.c     **** */
  21:lighter.c     **** void doLine (void) {
  28              		.loc 1 21 0
  29              		.cfi_startproc
  30              		@ args = 0, pretend = 0, frame = 0
  31              		@ frame_needed = 0, uses_anonymous_args = 0
  32 0000 08B5     		push	{r3, lr}
  33              		.cfi_def_cfa_offset 8
  34              		.cfi_offset 3, -8
  35              		.cfi_offset 14, -4
  22:lighter.c     ****  
ARM GAS  C:\Users\laure\AppData\Local\Temp\cca487K9.s 			page 2


  23:lighter.c     ****     Pin_D4_Write ( ~Pin_D4_Read() );
  36              		.loc 1 23 0
  37 0002 FFF7FEFF 		bl	Pin_D4_Read
  38              	.LVL0:
  39 0006 C043     		mvns	r0, r0
  40 0008 C0B2     		uxtb	r0, r0
  41 000a FFF7FEFF 		bl	Pin_D4_Write
  42              	.LVL1:
  24:lighter.c     ****     CyDelay( LED_DELAY );
  43              		.loc 1 24 0
  44 000e 4FF4FA70 		mov	r0, #500
  45 0012 FFF7FEFF 		bl	CyDelay
  46              	.LVL2:
  25:lighter.c     ****     Pin_D3_Write ( ~Pin_D3_Read() );
  47              		.loc 1 25 0
  48 0016 FFF7FEFF 		bl	Pin_D3_Read
  49              	.LVL3:
  50 001a C043     		mvns	r0, r0
  51 001c C0B2     		uxtb	r0, r0
  52 001e FFF7FEFF 		bl	Pin_D3_Write
  53              	.LVL4:
  26:lighter.c     ****     CyDelay( LED_DELAY );
  54              		.loc 1 26 0
  55 0022 4FF4FA70 		mov	r0, #500
  56 0026 FFF7FEFF 		bl	CyDelay
  57              	.LVL5:
  27:lighter.c     ****     Pin_D2_Write ( ~Pin_D2_Read() );
  58              		.loc 1 27 0
  59 002a FFF7FEFF 		bl	Pin_D2_Read
  60              	.LVL6:
  61 002e C043     		mvns	r0, r0
  62 0030 C0B2     		uxtb	r0, r0
  63 0032 FFF7FEFF 		bl	Pin_D2_Write
  64              	.LVL7:
  28:lighter.c     ****     CyDelay( LED_DELAY );
  65              		.loc 1 28 0
  66 0036 4FF4FA70 		mov	r0, #500
  67 003a FFF7FEFF 		bl	CyDelay
  68              	.LVL8:
  29:lighter.c     ****     Pin_D1_Write ( ~Pin_D1_Read() );
  69              		.loc 1 29 0
  70 003e FFF7FEFF 		bl	Pin_D1_Read
  71              	.LVL9:
  72 0042 C043     		mvns	r0, r0
  73 0044 C0B2     		uxtb	r0, r0
  74 0046 FFF7FEFF 		bl	Pin_D1_Write
  75              	.LVL10:
  30:lighter.c     ****     CyDelay( LED_DELAY );
  31:lighter.c     **** }
  76              		.loc 1 31 0
  77 004a BDE80840 		pop	{r3, lr}
  78              		.cfi_restore 14
  79              		.cfi_restore 3
  80              		.cfi_def_cfa_offset 0
  30:lighter.c     ****     CyDelay( LED_DELAY );
  81              		.loc 1 30 0
  82 004e 4FF4FA70 		mov	r0, #500
ARM GAS  C:\Users\laure\AppData\Local\Temp\cca487K9.s 			page 3


  83 0052 FFF7FEBF 		b	CyDelay
  84              	.LVL11:
  85              		.cfi_endproc
  86              	.LFE63:
  87              		.size	doLine, .-doLine
  88              		.section	.text.blink,"ax",%progbits
  89              		.align	1
  90              		.global	blink
  91              		.thumb
  92              		.thumb_func
  93              		.type	blink, %function
  94              	blink:
  95              	.LFB64:
  32:lighter.c     **** 
  33:lighter.c     **** /*
  34:lighter.c     ****    lights on and light off the LEDs while the number of
  35:lighter.c     ****    seconds passed in parameter has not elapsed
  36:lighter.c     **** */
  37:lighter.c     **** void blink (int seconds) {
  96              		.loc 1 37 0
  97              		.cfi_startproc
  98              		@ args = 0, pretend = 0, frame = 0
  99              		@ frame_needed = 0, uses_anonymous_args = 0
 100              	.LVL12:
 101 0000 38B5     		push	{r3, r4, r5, lr}
 102              		.cfi_def_cfa_offset 16
 103              		.cfi_offset 3, -16
 104              		.cfi_offset 4, -12
 105              		.cfi_offset 5, -8
 106              		.cfi_offset 14, -4
  38:lighter.c     ****     
  39:lighter.c     ****     int timeSpent = 0;
  40:lighter.c     ****     
  41:lighter.c     ****     int duration = seconds * 1000;
 107              		.loc 1 41 0
 108 0002 4FF47A74 		mov	r4, #1000
 109 0006 4443     		muls	r4, r0, r4
 110              	.LVL13:
  39:lighter.c     ****     
 111              		.loc 1 39 0
 112 0008 0025     		movs	r5, #0
 113              	.LVL14:
 114              	.L3:
  42:lighter.c     ****     
  43:lighter.c     ****     while (timeSpent < duration)
 115              		.loc 1 43 0
 116 000a A542     		cmp	r5, r4
 117 000c 1EDA     		bge	.L6
  44:lighter.c     ****     {
  45:lighter.c     ****         Pin_D1_Write ( ~Pin_D1_Read() );
 118              		.loc 1 45 0
 119 000e FFF7FEFF 		bl	Pin_D1_Read
 120              	.LVL15:
 121 0012 C043     		mvns	r0, r0
 122 0014 C0B2     		uxtb	r0, r0
 123 0016 FFF7FEFF 		bl	Pin_D1_Write
 124              	.LVL16:
ARM GAS  C:\Users\laure\AppData\Local\Temp\cca487K9.s 			page 4


  46:lighter.c     ****         Pin_D2_Write ( ~Pin_D2_Read() );
 125              		.loc 1 46 0
 126 001a FFF7FEFF 		bl	Pin_D2_Read
 127              	.LVL17:
 128 001e C043     		mvns	r0, r0
 129 0020 C0B2     		uxtb	r0, r0
 130 0022 FFF7FEFF 		bl	Pin_D2_Write
 131              	.LVL18:
  47:lighter.c     ****         Pin_D3_Write ( ~Pin_D3_Read() );
 132              		.loc 1 47 0
 133 0026 FFF7FEFF 		bl	Pin_D3_Read
 134              	.LVL19:
 135 002a C043     		mvns	r0, r0
 136 002c C0B2     		uxtb	r0, r0
 137 002e FFF7FEFF 		bl	Pin_D3_Write
 138              	.LVL20:
  48:lighter.c     ****         Pin_D4_Write ( ~Pin_D4_Read() );
 139              		.loc 1 48 0
 140 0032 FFF7FEFF 		bl	Pin_D4_Read
 141              	.LVL21:
 142 0036 C043     		mvns	r0, r0
 143 0038 C0B2     		uxtb	r0, r0
 144 003a FFF7FEFF 		bl	Pin_D4_Write
 145              	.LVL22:
  49:lighter.c     ****         CyDelay( LED_DELAY);
 146              		.loc 1 49 0
 147 003e 4FF4FA70 		mov	r0, #500
 148 0042 FFF7FEFF 		bl	CyDelay
 149              	.LVL23:
  50:lighter.c     ****         
  51:lighter.c     ****         timeSpent += LED_DELAY;
 150              		.loc 1 51 0
 151 0046 05F5FA75 		add	r5, r5, #500
 152              	.LVL24:
 153 004a DEE7     		b	.L3
 154              	.L6:
  52:lighter.c     ****     }
  53:lighter.c     ****     
  54:lighter.c     ****     
  55:lighter.c     **** }
 155              		.loc 1 55 0
 156 004c 38BD     		pop	{r3, r4, r5, pc}
 157              		.cfi_endproc
 158              	.LFE64:
 159              		.size	blink, .-blink
 160              		.text
 161              	.Letext0:
 162              		.file 2 "c:\\program files (x86)\\cypress\\psoc creator\\4.3\\psoc creator\\import\\gnu\\arm\\5.4.
 163              		.file 3 "c:\\program files (x86)\\cypress\\psoc creator\\4.3\\psoc creator\\import\\gnu\\arm\\5.4.
 164              		.file 4 "Generated_Source\\PSoC5/Pin_D4.h"
 165              		.file 5 "Generated_Source\\PSoC5/CyLib.h"
 166              		.file 6 "Generated_Source\\PSoC5/Pin_D3.h"
 167              		.file 7 "Generated_Source\\PSoC5/Pin_D2.h"
 168              		.file 8 "Generated_Source\\PSoC5/Pin_D1.h"
 169              		.file 9 "Generated_Source\\PSoC5/core_cm3.h"