ARM GAS  C:\Users\laure\AppData\Local\Temp\ccSmLfP3.s 			page 1


   1              		.syntax unified
   2              		.cpu cortex-m3
   3              		.fpu softvfp
   4              		.eabi_attribute 20, 1
   5              		.eabi_attribute 21, 1
   6              		.eabi_attribute 23, 3
   7              		.eabi_attribute 24, 1
   8              		.eabi_attribute 25, 1
   9              		.eabi_attribute 26, 1
  10              		.eabi_attribute 30, 4
  11              		.eabi_attribute 34, 1
  12              		.eabi_attribute 18, 4
  13              		.thumb
  14              		.syntax unified
  15              		.file	"printer.c"
  16              		.text
  17              	.Ltext0:
  18              		.cfi_sections	.debug_frame
  19              		.section	.text.printChar,"ax",%progbits
  20              		.align	1
  21              		.global	printChar
  22              		.thumb
  23              		.thumb_func
  24              		.type	printChar, %function
  25              	printChar:
  26              	.LFB63:
  27              		.file 1 "printer.c"
   1:printer.c     **** /* ========================================
   2:printer.c     ****  *
   3:printer.c     ****  * Copyright YOUR COMPANY, THE YEAR
   4:printer.c     ****  * All Rights Reserved
   5:printer.c     ****  * UNPUBLISHED, LICENSED SOFTWARE.
   6:printer.c     ****  *
   7:printer.c     ****  * CONFIDENTIAL AND PROPRIETARY INFORMATION
   8:printer.c     ****  * WHICH IS THE PROPERTY OF your company.
   9:printer.c     ****  *
  10:printer.c     ****  * ========================================
  11:printer.c     **** */
  12:printer.c     **** 
  13:printer.c     **** #include "project.h"
  14:printer.c     **** #include "printer.h"
  15:printer.c     **** 
  16:printer.c     **** #include <string.h>
  17:printer.c     **** 
  18:printer.c     **** void printChar (char c) {
  28              		.loc 1 18 0
  29              		.cfi_startproc
  30              		@ args = 0, pretend = 0, frame = 0
  31              		@ frame_needed = 0, uses_anonymous_args = 0
  32              	.LVL0:
  33 0000 10B5     		push	{r4, lr}
  34              		.cfi_def_cfa_offset 8
  35              		.cfi_offset 4, -8
  36              		.cfi_offset 14, -4
  37              		.loc 1 18 0
  38 0002 0446     		mov	r4, r0
  19:printer.c     ****     LCD_Screen_Position(0,0);
ARM GAS  C:\Users\laure\AppData\Local\Temp\ccSmLfP3.s 			page 2


  39              		.loc 1 19 0
  40 0004 0021     		movs	r1, #0
  41 0006 0846     		mov	r0, r1
  42              	.LVL1:
  43 0008 FFF7FEFF 		bl	LCD_Screen_Position
  44              	.LVL2:
  20:printer.c     ****     LCD_Screen_PutChar(c);
  45              		.loc 1 20 0
  46 000c 2046     		mov	r0, r4
  47 000e FFF7FEFF 		bl	LCD_Screen_PutChar
  48              	.LVL3:
  21:printer.c     ****     
  22:printer.c     ****     CyDelay(1000);
  49              		.loc 1 22 0
  50 0012 4FF47A70 		mov	r0, #1000
  51 0016 FFF7FEFF 		bl	CyDelay
  52              	.LVL4:
  23:printer.c     ****     LCD_Screen_ClearDisplay();
  24:printer.c     ****     
  25:printer.c     **** }
  53              		.loc 1 25 0
  54 001a BDE81040 		pop	{r4, lr}
  55              		.cfi_restore 14
  56              		.cfi_restore 4
  57              		.cfi_def_cfa_offset 0
  23:printer.c     ****     LCD_Screen_ClearDisplay();
  58              		.loc 1 23 0
  59 001e 0120     		movs	r0, #1
  60 0020 FFF7FEBF 		b	LCD_Screen_WriteControl
  61              	.LVL5:
  62              		.cfi_endproc
  63              	.LFE63:
  64              		.size	printChar, .-printChar
  65              		.section	.text.printHello,"ax",%progbits
  66              		.align	1
  67              		.global	printHello
  68              		.thumb
  69              		.thumb_func
  70              		.type	printHello, %function
  71              	printHello:
  72              	.LFB64:
  26:printer.c     **** 
  27:printer.c     **** void printHello (void) {
  73              		.loc 1 27 0
  74              		.cfi_startproc
  75              		@ args = 0, pretend = 0, frame = 0
  76              		@ frame_needed = 0, uses_anonymous_args = 0
  28:printer.c     ****     LCD_Screen_Position(0,0);
  77              		.loc 1 28 0
  78 0000 0021     		movs	r1, #0
  27:printer.c     ****     LCD_Screen_Position(0,0);
  79              		.loc 1 27 0
  80 0002 08B5     		push	{r3, lr}
  81              		.cfi_def_cfa_offset 8
  82              		.cfi_offset 3, -8
  83              		.cfi_offset 14, -4
  84              		.loc 1 28 0
ARM GAS  C:\Users\laure\AppData\Local\Temp\ccSmLfP3.s 			page 3


  85 0004 0846     		mov	r0, r1
  86 0006 FFF7FEFF 		bl	LCD_Screen_Position
  87              	.LVL6:
  29:printer.c     ****     LCD_Screen_PrintString("Hello wo");
  88              		.loc 1 29 0
  89 000a 0948     		ldr	r0, .L3
  90 000c FFF7FEFF 		bl	LCD_Screen_PrintString
  91              	.LVL7:
  30:printer.c     ****     LCD_Screen_Position(1,0);
  92              		.loc 1 30 0
  93 0010 0021     		movs	r1, #0
  94 0012 0120     		movs	r0, #1
  95 0014 FFF7FEFF 		bl	LCD_Screen_Position
  96              	.LVL8:
  31:printer.c     ****     LCD_Screen_PrintString("rld !");
  97              		.loc 1 31 0
  98 0018 0648     		ldr	r0, .L3+4
  99 001a FFF7FEFF 		bl	LCD_Screen_PrintString
 100              	.LVL9:
  32:printer.c     ****     
  33:printer.c     ****     CyDelay(2000);
 101              		.loc 1 33 0
 102 001e 4FF4FA60 		mov	r0, #2000
 103 0022 FFF7FEFF 		bl	CyDelay
 104              	.LVL10:
  34:printer.c     ****     LCD_Screen_ClearDisplay();
  35:printer.c     **** }
 105              		.loc 1 35 0
 106 0026 BDE80840 		pop	{r3, lr}
 107              		.cfi_restore 14
 108              		.cfi_restore 3
 109              		.cfi_def_cfa_offset 0
  34:printer.c     ****     LCD_Screen_ClearDisplay();
 110              		.loc 1 34 0
 111 002a 0120     		movs	r0, #1
 112 002c FFF7FEBF 		b	LCD_Screen_WriteControl
 113              	.LVL11:
 114              	.L4:
 115              		.align	2
 116              	.L3:
 117 0030 00000000 		.word	.LC0
 118 0034 09000000 		.word	.LC1
 119              		.cfi_endproc
 120              	.LFE64:
 121              		.size	printHello, .-printHello
 122              		.section	.text.staticPrint,"ax",%progbits
 123              		.align	1
 124              		.global	staticPrint
 125              		.thumb
 126              		.thumb_func
 127              		.type	staticPrint, %function
 128              	staticPrint:
 129              	.LFB65:
  36:printer.c     **** 
  37:printer.c     **** void staticPrint(char param[])
  38:printer.c     **** {
 130              		.loc 1 38 0
ARM GAS  C:\Users\laure\AppData\Local\Temp\ccSmLfP3.s 			page 4


 131              		.cfi_startproc
 132              		@ args = 0, pretend = 0, frame = 8
 133              		@ frame_needed = 0, uses_anonymous_args = 0
 134              	.LVL12:
 135 0000 37B5     		push	{r0, r1, r2, r4, r5, lr}
 136              		.cfi_def_cfa_offset 24
 137              		.cfi_offset 4, -12
 138              		.cfi_offset 5, -8
 139              		.cfi_offset 14, -4
 140              		.loc 1 38 0
 141 0002 0446     		mov	r4, r0
  39:printer.c     ****     const int LENGTH = strlen(param);
 142              		.loc 1 39 0
 143 0004 FFF7FEFF 		bl	strlen
 144              	.LVL13:
 145 0008 0546     		mov	r5, r0
 146              	.LVL14:
  40:printer.c     ****     
  41:printer.c     ****     LCD_Screen_Position(0,0);
 147              		.loc 1 41 0
 148 000a 0021     		movs	r1, #0
 149 000c 0846     		mov	r0, r1
 150              	.LVL15:
 151 000e FFF7FEFF 		bl	LCD_Screen_Position
 152              	.LVL16:
  42:printer.c     ****     
  43:printer.c     ****     if (LENGTH <= 8) {
 153              		.loc 1 43 0
 154 0012 082D     		cmp	r5, #8
  44:printer.c     ****         LCD_Screen_PrintString(param);
 155              		.loc 1 44 0
 156 0014 2046     		mov	r0, r4
  43:printer.c     ****         LCD_Screen_PrintString(param);
 157              		.loc 1 43 0
 158 0016 18DD     		ble	.L11
 159              	.LBB2:
  45:printer.c     ****     }
  46:printer.c     ****     
  47:printer.c     ****     else {
  48:printer.c     ****         LCD_Screen_PrintString(param);
 160              		.loc 1 48 0
 161 0018 FFF7FEFF 		bl	LCD_Screen_PrintString
 162              	.LVL17:
  49:printer.c     ****         
  50:printer.c     ****         char secondRow[8] = "\0\0\0\0\0\0\0\0";
 163              		.loc 1 50 0
 164 001c 6B46     		mov	r3, sp
 165 001e 104A     		ldr	r2, .L13
 166 0020 0734     		adds	r4, r4, #7
 167              	.LVL18:
 168 0022 1068     		ldr	r0, [r2]	@ unaligned
 169 0024 5168     		ldr	r1, [r2, #4]	@ unaligned
 170 0026 03C3     		stmia	r3!, {r0, r1}
 171              	.LVL19:
 172 0028 0923     		movs	r3, #9
 173              	.LVL20:
 174              	.L9:
ARM GAS  C:\Users\laure\AppData\Local\Temp\ccSmLfP3.s 			page 5


  51:printer.c     ****         
  52:printer.c     ****         int i;
  53:printer.c     ****         for ( i = 0; i < 8; i++)
  54:printer.c     ****         {
  55:printer.c     ****             secondRow[i] = param[8+i];
 175              		.loc 1 55 0
 176 002a 14F8011F 		ldrb	r1, [r4, #1]!	@ zero_extendqisi2
 177 002e 0DEB0302 		add	r2, sp, r3
  56:printer.c     ****             
  57:printer.c     ****             if (i+8+1 == LENGTH)
 178              		.loc 1 57 0
 179 0032 9D42     		cmp	r5, r3
  55:printer.c     ****             
 180              		.loc 1 55 0
 181 0034 02F8091C 		strb	r1, [r2, #-9]
 182              		.loc 1 57 0
 183 0038 02D0     		beq	.L8
 184              	.LVL21:
 185 003a 0133     		adds	r3, r3, #1
 186              	.LVL22:
  53:printer.c     ****         {
 187              		.loc 1 53 0 discriminator 2
 188 003c 112B     		cmp	r3, #17
 189 003e F4D1     		bne	.L9
 190              	.LVL23:
 191              	.L8:
  58:printer.c     ****                 break;
  59:printer.c     ****         }
  60:printer.c     ****         
  61:printer.c     ****         LCD_Screen_Position(1,0);
 192              		.loc 1 61 0
 193 0040 0120     		movs	r0, #1
 194 0042 0021     		movs	r1, #0
 195 0044 FFF7FEFF 		bl	LCD_Screen_Position
 196              	.LVL24:
  62:printer.c     ****         LCD_Screen_PrintString(secondRow);
 197              		.loc 1 62 0
 198 0048 6846     		mov	r0, sp
 199              	.L11:
 200 004a FFF7FEFF 		bl	LCD_Screen_PrintString
 201              	.LVL25:
 202              	.LBE2:
  63:printer.c     ****     }
  64:printer.c     ****     
  65:printer.c     ****     CyDelay(2000);
 203              		.loc 1 65 0
 204 004e 4FF4FA60 		mov	r0, #2000
 205 0052 FFF7FEFF 		bl	CyDelay
 206              	.LVL26:
  66:printer.c     ****     LCD_Screen_ClearDisplay();
 207              		.loc 1 66 0
 208 0056 0120     		movs	r0, #1
 209 0058 FFF7FEFF 		bl	LCD_Screen_WriteControl
 210              	.LVL27:
  67:printer.c     **** 
  68:printer.c     **** }
 211              		.loc 1 68 0
ARM GAS  C:\Users\laure\AppData\Local\Temp\ccSmLfP3.s 			page 6


 212 005c 03B0     		add	sp, sp, #12
 213              		.cfi_def_cfa_offset 12
 214              		@ sp needed
 215 005e 30BD     		pop	{r4, r5, pc}
 216              	.LVL28:
 217              	.L14:
 218              		.align	2
 219              	.L13:
 220 0060 00000000 		.word	.LANCHOR0
 221              		.cfi_endproc
 222              	.LFE65:
 223              		.size	staticPrint, .-staticPrint
 224              		.section	.rodata
 225              		.set	.LANCHOR0,. + 0
 226              	.LC2:
 227 0000 00000000 		.ascii	"\000\000\000\000\000\000\000\000\000"
 227      00000000 
 227      00
 228              		.section	.rodata.str1.1,"aMS",%progbits,1
 229              	.LC0:
 230 0000 48656C6C 		.ascii	"Hello wo\000"
 230      6F20776F 
 230      00
 231              	.LC1:
 232 0009 726C6420 		.ascii	"rld !\000"
 232      2100
 233              		.text
 234              	.Letext0:
 235              		.file 2 "c:\\program files (x86)\\cypress\\psoc creator\\4.3\\psoc creator\\import\\gnu\\arm\\5.4.
 236              		.file 3 "c:\\program files (x86)\\cypress\\psoc creator\\4.3\\psoc creator\\import\\gnu\\arm\\5.4.
 237              		.file 4 "Generated_Source\\PSoC5/LCD_Screen.h"
 238              		.file 5 "Generated_Source\\PSoC5/CyLib.h"
 239              		.file 6 "c:\\program files (x86)\\cypress\\psoc creator\\4.3\\psoc creator\\import\\gnu\\arm\\5.4.
 240              		.file 7 "Generated_Source\\PSoC5/core_cm3.h"